	.file	"NeoIPC.c"
	.text
.Ltext0:
	.align	2
	.type	IPC_SendSync, %function
IPC_SendSync:
.LFB12:
	.file 1 "C:/devkitPro/libnds/include/nds/ipc.h"
	.loc 1 125 0
	@ Function supports interworking.
	@ args = 0, pretend = 0, frame = 0
	@ frame_needed = 0, uses_anonymous_args = 0
	@ link register save eliminated.
.LVL0:
	.loc 1 127 0
	ldr	r3, .L3
	ldrh	r2, [r3, #128]
	bic	r2, r2, #3840
	and	r0, r0, #15
.LVL1:
	orr	r2, r2, #8192
	orr	r2, r2, r0, asl #8
	.loc 1 125 0
	@ lr needed for prologue
	.loc 1 127 0
	strh	r2, [r3, #128]	@ movhi
	.loc 1 128 0
	bx	lr
.L4:
	.align	2
.L3:
	.word	67109120
.LFE12:
	.size	IPC_SendSync, .-IPC_SendSync
	.align	2
	.global	neoIPCInit
	.type	neoIPCInit, %function
neoIPCInit:
.LFB23:
	.file 2 "C:/Users/GRX/NeoDS-GBMacro/arm7/../common/source/NeoIPC.c"
	.loc 2 34 0
	@ Function supports interworking.
	@ args = 0, pretend = 0, frame = 0
	@ frame_needed = 0, uses_anonymous_args = 0
	@ link register save eliminated.
	.loc 2 35 0
	ldr	r2, .L7
	ldr	r3, .L7+4
	strh	r3, [r2, #132]	@ movhi
	.loc 2 36 0
	ldrh	r3, [r2, #128]
	orr	r3, r3, #16384
	.loc 2 34 0
	@ lr needed for prologue
	.loc 2 36 0
	strh	r3, [r2, #128]	@ movhi
	.loc 2 37 0
	bx	lr
.L8:
	.align	2
.L7:
	.word	67109120
	.word	-16376
.LFE23:
	.size	neoIPCInit, .-neoIPCInit
	.align	2
	.global	neoIPCSendCommandAsync
	.type	neoIPCSendCommandAsync, %function
neoIPCSendCommandAsync:
.LFB24:
	.loc 2 40 0
	@ Function supports interworking.
	@ args = 0, pretend = 0, frame = 0
	@ frame_needed = 0, uses_anonymous_args = 0
.LVL2:
	str	lr, [sp, #-4]!
.LCFI0:
	mov	r2, r0
	sub	sp, sp, #4
.LCFI1:
.LVL3:
.L11:
	.loc 2 42 0
	ldr	r3, .L16
	ldrh	r3, [r3, #132]
	tst	r3, #2
	bne	.L11
	.loc 2 45 0
	mov	r0, r2
	.loc 2 44 0
	mov	r3, #67108864
	mov	r2, r2, asl #24
.LVL4:
	str	r2, [r3, #392]
	.loc 2 45 0
	bl	IPC_SendSync
.LVL5:
	.loc 2 52 0
	ldr	r2, .L16+4
	ldr	r3, [r2, #-235]
	add	r3, r3, #1
	str	r3, [r2, #-235]
	.loc 2 53 0
	ldr	r0, [r2, #-235]
	.loc 2 55 0
	add	sp, sp, #4
	ldr	lr, [sp], #4
	bx	lr
.L17:
	.align	2
.L16:
	.word	67109120
	.word	41940223
.LFE24:
	.size	neoIPCSendCommandAsync, .-neoIPCSendCommandAsync
	.align	2
	.global	neoIPCCheckCommandDone
	.type	neoIPCCheckCommandDone, %function
neoIPCCheckCommandDone:
.LFB26:
	.loc 2 65 0
	@ Function supports interworking.
	@ args = 0, pretend = 0, frame = 0
	@ frame_needed = 0, uses_anonymous_args = 0
	@ link register save eliminated.
.LVL6:
	.loc 2 69 0
	ldr	r3, .L23
	ldr	r3, [r3, #-239]
.LVL7:
	.loc 2 71 0
	cmp	r3, r0
	rsb	r2, r3, r0
	.loc 2 65 0
	@ lr needed for prologue
	.loc 2 71 0
	mov	r0, #1
.LVL8:
	bxcs	lr
	cmp	r2, #-2147483648
	movls	r0, #0
	movhi	r0, #1
	.loc 2 79 0
	bx	lr
.L24:
	.align	2
.L23:
	.word	41940223
.LFE26:
	.size	neoIPCCheckCommandDone, .-neoIPCCheckCommandDone
	.align	2
	.global	neoIPCRecvCommand
	.type	neoIPCRecvCommand, %function
neoIPCRecvCommand:
.LFB28:
	.loc 2 99 0
	@ Function supports interworking.
	@ args = 0, pretend = 0, frame = 0
	@ frame_needed = 0, uses_anonymous_args = 0
	@ link register save eliminated.
	.loc 2 103 0
	ldr	r3, .L30
	ldrh	r3, [r3, #132]
	tst	r3, #256
	.loc 2 99 0
	@ lr needed for prologue
	.loc 2 103 0
	mov	r0, #0
.LVL9:
	bxne	lr
	.loc 2 106 0
	ldr	r2, .L30+4
	mov	r3, #1
	str	r3, [r2, #0]
	.loc 2 105 0
	mov	r3, #68157440
	ldr	r0, [r3, #0]
.LVL10:
	.loc 2 110 0
	bx	lr
.L31:
	.align	2
.L30:
	.word	67109120
	.word	g_ipcState
.LFE28:
	.size	neoIPCRecvCommand, .-neoIPCRecvCommand
	.align	2
	.global	neoIPCAckCommand
	.type	neoIPCAckCommand, %function
neoIPCAckCommand:
.LFB30:
	.loc 2 143 0
	@ Function supports interworking.
	@ args = 0, pretend = 0, frame = 0
	@ frame_needed = 0, uses_anonymous_args = 0
	.loc 2 148 0
	ldr	r2, .L34
	.loc 2 143 0
	str	lr, [sp, #-4]!
.LCFI2:
	.loc 2 148 0
	ldr	r3, [r2, #-231]
	add	r3, r3, #1
	str	r3, [r2, #-231]
	.loc 2 143 0
	sub	sp, sp, #4
.LCFI3:
	.loc 2 150 0
	mov	r0, #0
	bl	IPC_SendSync
	.loc 2 151 0
	ldr	r3, .L34+4
	mov	r2, #0
	str	r2, [r3, #0]
	.loc 2 152 0
	add	sp, sp, #4
	ldr	lr, [sp], #4
	bx	lr
.L35:
	.align	2
.L34:
	.word	41940223
	.word	g_ipcState
.LFE30:
	.size	neoIPCAckCommand, .-neoIPCAckCommand
	.align	2
	.type	neoIPCDelay, %function
neoIPCDelay:
.LFB22:
	.loc 2 29 0
	@ Function supports interworking.
	@ args = 0, pretend = 0, frame = 0
	@ frame_needed = 0, uses_anonymous_args = 0
	str	lr, [sp, #-4]!
.LCFI4:
	.loc 2 30 0
	mov	r0, #0
	.loc 2 29 0
	sub	sp, sp, #4
.LCFI5:
	.loc 2 30 0
	mov	r1, #65536
	bl	swiIntrWait
	.loc 2 31 0
	add	sp, sp, #4
	ldr	lr, [sp], #4
	bx	lr
.LFE22:
	.size	neoIPCDelay, .-neoIPCDelay
	.align	2
	.global	neoIPCWaitCommandDone
	.type	neoIPCWaitCommandDone, %function
neoIPCWaitCommandDone:
.LFB27:
	.loc 2 82 0
	@ Function supports interworking.
	@ args = 0, pretend = 0, frame = 0
	@ frame_needed = 0, uses_anonymous_args = 0
.LVL11:
	stmfd	sp!, {r4, lr}
.LCFI6:
	.loc 2 82 0
	mov	r4, r0
	b	.L39
.LVL12:
.L40:
	.loc 2 88 0
	bl	neoIPCDelay
.LVL13:
.L39:
	.loc 2 87 0
	mov	r0, r4
	bl	neoIPCCheckCommandDone
	cmp	r0, #0
	beq	.L40
	.loc 2 96 0
	ldmfd	sp!, {r4, lr}
	bx	lr
.LFE27:
	.size	neoIPCWaitCommandDone, .-neoIPCWaitCommandDone
	.align	2
	.global	neoIPCSendCommand
	.type	neoIPCSendCommand, %function
neoIPCSendCommand:
.LFB25:
	.loc 2 58 0
	@ Function supports interworking.
	@ args = 0, pretend = 0, frame = 0
	@ frame_needed = 0, uses_anonymous_args = 0
.LVL14:
	str	lr, [sp, #-4]!
.LCFI7:
	sub	sp, sp, #4
.LCFI8:
	.loc 2 59 0
	bl	neoIPCSendCommandAsync
.LVL15:
	.loc 2 61 0
	add	sp, sp, #4
	ldr	lr, [sp], #4
	.loc 2 60 0
	b	neoIPCWaitCommandDone
.LFE25:
	.size	neoIPCSendCommand, .-neoIPCSendCommand
	.align	2
	.global	neoIPCWaitCommand
	.type	neoIPCWaitCommand, %function
neoIPCWaitCommand:
.LFB29:
	.loc 2 113 0
	@ Function supports interworking.
	@ args = 0, pretend = 0, frame = 0
	@ frame_needed = 0, uses_anonymous_args = 0
.LVL16:
	stmfd	sp!, {r4, lr}
.LCFI9:
	mov	r4, r0
.LVL17:
.L46:
.LBB5:
.LBB6:
.LBB7:
	.loc 2 103 0
	ldr	r3, .L55
	ldrh	r3, [r3, #132]
	tst	r3, #256
	.loc 2 106 0
	ldreq	r2, .L55+4
	.loc 2 103 0
	mov	r3, #0
.LVL18:
	.loc 2 106 0
	moveq	r3, #1
.LVL19:
	streq	r3, [r2, #0]
	.loc 2 105 0
	moveq	r3, #68157440
	ldreq	r3, [r3, #0]
.LVL20:
.LBE7:
.LBE6:
	.loc 2 122 0
	cmp	r4, r3, lsr #24
	beq	.L50
	.loc 2 124 0
	cmp	r3, #0
	.loc 2 130 0
	blne	neoIPCAckCommand
.LVL21:
.L52:
	.loc 2 132 0
	bl	neoIPCDelay
.LVL22:
	b	.L46
.LVL23:
.L50:
.LBE5:
	.loc 2 140 0
	mov	r0, #0
	ldmfd	sp!, {r4, lr}
	bx	lr
.L56:
	.align	2
.L55:
	.word	67109120
	.word	g_ipcState
.LFE29:
	.size	neoIPCWaitCommand, .-neoIPCWaitCommand
	.bss
	.align	2
g_ipcState:
	.space	4
	.section	.debug_frame,"",%progbits
.Lframe0:
	.4byte	.LECIE0-.LSCIE0
.LSCIE0:
	.4byte	0xffffffff
	.byte	0x1
	.ascii	"\000"
	.uleb128 0x1
	.sleb128 -4
	.byte	0xe
	.byte	0xc
	.uleb128 0xd
	.uleb128 0x0
	.align	2
.LECIE0:
.LSFDE0:
	.4byte	.LEFDE0-.LASFDE0
.LASFDE0:
	.4byte	.Lframe0
	.4byte	.LFB12
	.4byte	.LFE12-.LFB12
	.align	2
.LEFDE0:
.LSFDE2:
	.4byte	.LEFDE2-.LASFDE2
.LASFDE2:
	.4byte	.Lframe0
	.4byte	.LFB23
	.4byte	.LFE23-.LFB23
	.align	2
.LEFDE2:
.LSFDE4:
	.4byte	.LEFDE4-.LASFDE4
.LASFDE4:
	.4byte	.Lframe0
	.4byte	.LFB24
	.4byte	.LFE24-.LFB24
	.byte	0x4
	.4byte	.LCFI0-.LFB24
	.byte	0xe
	.uleb128 0x4
	.byte	0x4
	.4byte	.LCFI1-.LCFI0
	.byte	0xe
	.uleb128 0x8
	.byte	0x8e
	.uleb128 0x1
	.align	2
.LEFDE4:
.LSFDE6:
	.4byte	.LEFDE6-.LASFDE6
.LASFDE6:
	.4byte	.Lframe0
	.4byte	.LFB26
	.4byte	.LFE26-.LFB26
	.align	2
.LEFDE6:
.LSFDE8:
	.4byte	.LEFDE8-.LASFDE8
.LASFDE8:
	.4byte	.Lframe0
	.4byte	.LFB28
	.4byte	.LFE28-.LFB28
	.align	2
.LEFDE8:
.LSFDE10:
	.4byte	.LEFDE10-.LASFDE10
.LASFDE10:
	.4byte	.Lframe0
	.4byte	.LFB30
	.4byte	.LFE30-.LFB30
	.byte	0x4
	.4byte	.LCFI2-.LFB30
	.byte	0xe
	.uleb128 0x4
	.byte	0x4
	.4byte	.LCFI3-.LCFI2
	.byte	0xe
	.uleb128 0x8
	.byte	0x8e
	.uleb128 0x1
	.align	2
.LEFDE10:
.LSFDE12:
	.4byte	.LEFDE12-.LASFDE12
.LASFDE12:
	.4byte	.Lframe0
	.4byte	.LFB22
	.4byte	.LFE22-.LFB22
	.byte	0x4
	.4byte	.LCFI4-.LFB22
	.byte	0xe
	.uleb128 0x4
	.byte	0x4
	.4byte	.LCFI5-.LCFI4
	.byte	0xe
	.uleb128 0x8
	.byte	0x8e
	.uleb128 0x1
	.align	2
.LEFDE12:
.LSFDE14:
	.4byte	.LEFDE14-.LASFDE14
.LASFDE14:
	.4byte	.Lframe0
	.4byte	.LFB27
	.4byte	.LFE27-.LFB27
	.byte	0x4
	.4byte	.LCFI6-.LFB27
	.byte	0xe
	.uleb128 0x8
	.byte	0x8e
	.uleb128 0x1
	.byte	0x84
	.uleb128 0x2
	.align	2
.LEFDE14:
.LSFDE16:
	.4byte	.LEFDE16-.LASFDE16
.LASFDE16:
	.4byte	.Lframe0
	.4byte	.LFB25
	.4byte	.LFE25-.LFB25
	.byte	0x4
	.4byte	.LCFI7-.LFB25
	.byte	0xe
	.uleb128 0x4
	.byte	0x4
	.4byte	.LCFI8-.LCFI7
	.byte	0xe
	.uleb128 0x8
	.byte	0x8e
	.uleb128 0x1
	.align	2
.LEFDE16:
.LSFDE18:
	.4byte	.LEFDE18-.LASFDE18
.LASFDE18:
	.4byte	.Lframe0
	.4byte	.LFB29
	.4byte	.LFE29-.LFB29
	.byte	0x4
	.4byte	.LCFI9-.LFB29
	.byte	0xe
	.uleb128 0x8
	.byte	0x8e
	.uleb128 0x1
	.byte	0x84
	.uleb128 0x2
	.align	2
.LEFDE18:
	.file 3 "C:/devkitPro/libnds/include/nds/jtypes.h"
	.file 4 "c:\\devkitpro\\devkitarm\\bin\\../lib/gcc/arm-eabi/4.1.1/../../../../arm-eabi/include/stdint.h"
	.file 5 "C:/Users/GRX/NeoDS-GBMacro/arm7/../common/source/NeoIPC.h"
	.file 6 "C:/Users/GRX/NeoDS-GBMacro/arm7/source/NeoSystem7.h"
	.file 7 "C:/Users/GRX/NeoDS-GBMacro/arm7/source/NeoCpuZ80.h"
	.file 8 "C:/Users/GRX/NeoDS-GBMacro/arm7/source/DrZ80.h"
	.text
.Letext0: