	.cpu arm7tdmi
	.fpu softvfp
	.eabi_attribute 23, 1
	.eabi_attribute 24, 1
	.eabi_attribute 25, 1
	.eabi_attribute 26, 1
	.eabi_attribute 30, 4
	.eabi_attribute 18, 4
	.file	"template.c"
	.text
.Ltext0:
	.align	2
	.type	VcountHandler, %function
VcountHandler:
.LFB28:
	.file 1 "C:/Users/GRX/NeoDS/arm7/source/template.c"
	.loc 1 66 0
	@ Function supports interworking.
	@ args = 0, pretend = 0, frame = 0
	@ frame_needed = 0, uses_anonymous_args = 0
	@ link register save eliminated.
	.loc 1 68 0
	bx	lr
.LFE28:
	.size	VcountHandler, .-VcountHandler
	.align	2
	.type	VblankHandler, %function
VblankHandler:
.LFB29:
	.loc 1 71 0
	@ Function supports interworking.
	@ args = 0, pretend = 0, frame = 0
	@ frame_needed = 0, uses_anonymous_args = 0
	@ link register save eliminated.
	.loc 1 73 0
	bx	lr
.LFE29:
	.size	VblankHandler, .-VblankHandler
	.align	2
	.type	IPCSyncHandler, %function
IPCSyncHandler:
.LFB30:
	.loc 1 76 0
	@ Function supports interworking.
	@ args = 0, pretend = 0, frame = 0
	@ frame_needed = 0, uses_anonymous_args = 0
	@ link register save eliminated.
	.loc 1 78 0
	bx	lr
.LFE30:
	.size	IPCSyncHandler, .-IPCSyncHandler
	.align	2
	.global	main
	.type	main, %function
main:
.LFB31:
	.loc 1 84 0
	@ Function supports interworking.
	@ args = 0, pretend = 0, frame = 0
	@ frame_needed = 0, uses_anonymous_args = 0
.LVL0:
	stmfd	sp!, {r4, lr}
.LCFI0:
	.loc 1 85 0
	bl	neoIPCInit
.LVL1:
	.loc 1 87 0
	bl	rtcReset
	.loc 1 89 0
	bl	irqInit
.LBB6:
.LBB7:
	.file 2 "C:/devkitPro/libnds/include/nds/system.h"
	.loc 2 74 0
	mov	r4, #67108864
.LBE7:
.LBE6:
	.loc 1 90 0
	mov	r0, #1
	ldr	r1, .L9
	bl	irqSet
.LBB9:
.LBB8:
	.loc 2 74 0
	ldrh	r3, [r4, #4]
	and	r3, r3, #127
	strh	r3, [r4, #4]	@ movhi
.LBE8:
.LBE9:
	.loc 1 92 0
	mov	r0, #4
	ldr	r1, .L9+4
	bl	irqSet
	.loc 1 93 0
	mov	r0, #65536
	ldr	r1, .L9+8
	bl	irqSet
	.loc 1 94 0
	ldr	r1, .L9+12
	mov	r0, #64
	bl	irqSet
	.loc 1 95 0
	ldr	r0, .L9+16
	bl	irqEnable
	.loc 1 96 0
	mov	r3, #1
	.loc 1 99 0
	mov	r0, r3
	.loc 1 96 0
	str	r3, [r4, #520]
	.loc 1 99 0
	bl	neoIPCWaitCommand
	.loc 1 105 0
	bl	neoSystem7Init
	.loc 1 107 0
	bl	neoIPCAckCommand
	.loc 1 109 0
	bl	neoSystem7Execute
	.loc 1 112 0
	mov	r0, #0
	ldmfd	sp!, {r4, lr}
	bx	lr
.L10:
	.align	2
.L9:
	.word	VblankHandler
	.word	VcountHandler
	.word	IPCSyncHandler
	.word	neoAudioEventHandler
	.word	65605
.LFE31:
	.size	main, .-main
	.section	.debug_frame,"",%progbits
.Lframe0:
	.4byte	.LECIE0-.LSCIE0
.LSCIE0:
	.4byte	0xffffffff
	.byte	0x1
	.ascii	"\000"
	.uleb128 0x1
	.sleb128 -4
	.byte	0xe
	.byte	0xc
	.uleb128 0xd
	.uleb128 0x0
	.align	2
.LECIE0:
.LSFDE0:
	.4byte	.LEFDE0-.LASFDE0
.LASFDE0:
	.4byte	.Lframe0
	.4byte	.LFB28
	.4byte	.LFE28-.LFB28
	.align	2
.LEFDE0:
.LSFDE2:
	.4byte	.LEFDE2-.LASFDE2
.LASFDE2:
	.4byte	.Lframe0
	.4byte	.LFB29
	.4byte	.LFE29-.LFB29
	.align	2
.LEFDE2:
.LSFDE4:
	.4byte	.LEFDE4-.LASFDE4
.LASFDE4:
	.4byte	.Lframe0
	.4byte	.LFB30
	.4byte	.LFE30-.LFB30
	.align	2
.LEFDE4:
.LSFDE6:
	.4byte	.LEFDE6-.LASFDE6
.LASFDE6:
	.4byte	.Lframe0
	.4byte	.LFB31
	.4byte	.LFE31-.LFB31
	.byte	0x4
	.4byte	.LCFI0-.LFB31
	.byte	0xe
	.uleb128 0x8
	.byte	0x11
	.uleb128 0xe
	.sleb128 1
	.byte	0x11
	.uleb128 0x4
	.sleb128 2
	.align	2
.LEFDE6:
	.text
.Letext0: