Archive member included because of file (symbol)

C:/devkitPro/libnds/lib\libnds9.a(keys.o)
                              guiBase.o (keysHeld)
C:/devkitPro/libnds/lib\libnds9.a(touch.o)
                              guiBase.o (touchReadXY)
C:/devkitPro/libnds/lib\libnds9.a(video.o)
                              NeoVideoSprites.arm.o (vramSetMainBanks)
C:/devkitPro/libnds/lib\libnds9.a(card.o)
                              io_nmmc.o (cardWriteCommand)
C:/devkitPro/libnds/lib\libnds9.a(interrupts.o)
                              EmuSystem.o (irqSet)
C:/devkitPro/libnds/lib\libnds9.a(dcache.o)
                              guiRender.o (DC_FlushAll)
C:/devkitPro/libnds/lib\libnds9.a(biosCalls.o)
                              NeoVideo.o (swiIntrWait)
C:/devkitPro/libnds/lib\libnds9.a(interruptDispatcher.o)
                              C:/devkitPro/libnds/lib\libnds9.a(interrupts.o) (IntrMain)
c:/devkitpro/devkitarm/bin/../lib/gcc/arm-eabi/4.1.1/thumb\libgcc.a(_udivsi3.o)
                              guiStatus.o (__aeabi_uidiv)
c:/devkitpro/devkitarm/bin/../lib/gcc/arm-eabi/4.1.1/thumb\libgcc.a(_divsi3.o)
                              NeoVideoFixed.arm.o (__aeabi_idiv)
c:/devkitpro/devkitarm/bin/../lib/gcc/arm-eabi/4.1.1/thumb\libgcc.a(_dvmd_tls.o)
                              c:/devkitpro/devkitarm/bin/../lib/gcc/arm-eabi/4.1.1/thumb\libgcc.a(_udivsi3.o) (__div0)
c:/devkitpro/devkitarm/bin/../lib/gcc/arm-eabi/4.1.1/thumb\libgcc.a(_call_via_rX.o)
                              c:/devkitpro/devkitarm/bin/../lib/gcc/arm-eabi/4.1.1/../../../../arm-eabi/lib/thumb/ds_arm9_crt0.o (_call_via_r3)
c:/devkitpro/devkitarm/bin/../lib/gcc/arm-eabi/4.1.1/../../../../arm-eabi/lib/thumb\libg.a(lib_a-ctype_.o)
                              Sprintf.o (__ctype_ptr)
c:/devkitpro/devkitarm/bin/../lib/gcc/arm-eabi/4.1.1/../../../../arm-eabi/lib/thumb\libg.a(lib_a-init.o)
                              c:/devkitpro/devkitarm/bin/../lib/gcc/arm-eabi/4.1.1/../../../../arm-eabi/lib/thumb/ds_arm9_crt0.o (__libc_init_array)
c:/devkitpro/devkitarm/bin/../lib/gcc/arm-eabi/4.1.1/../../../../arm-eabi/lib/thumb\libg.a(lib_a-malloc.o)
                              cache.o (free)
c:/devkitpro/devkitarm/bin/../lib/gcc/arm-eabi/4.1.1/../../../../arm-eabi/lib/thumb\libg.a(lib_a-mallocr.o)
                              c:/devkitpro/devkitarm/bin/../lib/gcc/arm-eabi/4.1.1/../../../../arm-eabi/lib/thumb\libg.a(lib_a-malloc.o) (_malloc_r)
c:/devkitpro/devkitarm/bin/../lib/gcc/arm-eabi/4.1.1/../../../../arm-eabi/lib/thumb\libg.a(lib_a-memcpy.o)
                              NeoConfig.o (memcpy)
c:/devkitpro/devkitarm/bin/../lib/gcc/arm-eabi/4.1.1/../../../../arm-eabi/lib/thumb\libg.a(lib_a-memmove.o)
                              directory.o (memmove)
c:/devkitpro/devkitarm/bin/../lib/gcc/arm-eabi/4.1.1/../../../../arm-eabi/lib/thumb\libg.a(lib_a-memset.o)
                              guiBase.o (memset)
c:/devkitpro/devkitarm/bin/../lib/gcc/arm-eabi/4.1.1/../../../../arm-eabi/lib/thumb\libg.a(lib_a-mlock.o)
                              c:/devkitpro/devkitarm/bin/../lib/gcc/arm-eabi/4.1.1/../../../../arm-eabi/lib/thumb\libg.a(lib_a-mallocr.o) (__malloc_lock)
c:/devkitpro/devkitarm/bin/../lib/gcc/arm-eabi/4.1.1/../../../../arm-eabi/lib/thumb\libg.a(lib_a-qsort.o)
                              NeoSystem.o (qsort)
c:/devkitpro/devkitarm/bin/../lib/gcc/arm-eabi/4.1.1/../../../../arm-eabi/lib/thumb\libg.a(lib_a-realloc.o)
                              EmuSystem.o (realloc)
c:/devkitpro/devkitarm/bin/../lib/gcc/arm-eabi/4.1.1/../../../../arm-eabi/lib/thumb\libg.a(lib_a-reallocr.o)
                              c:/devkitpro/devkitarm/bin/../lib/gcc/arm-eabi/4.1.1/../../../../arm-eabi/lib/thumb\libg.a(lib_a-realloc.o) (_realloc_r)
c:/devkitpro/devkitarm/bin/../lib/gcc/arm-eabi/4.1.1/../../../../arm-eabi/lib/thumb\libg.a(lib_a-sbrkr.o)
                              c:/devkitpro/devkitarm/bin/../lib/gcc/arm-eabi/4.1.1/../../../../arm-eabi/lib/thumb\libg.a(lib_a-mallocr.o) (_sbrk_r)
c:/devkitpro/devkitarm/bin/../lib/gcc/arm-eabi/4.1.1/../../../../arm-eabi/lib/thumb\libg.a(lib_a-strcasecmp.o)
                              NeoSystem.o (strcasecmp)
c:/devkitpro/devkitarm/bin/../lib/gcc/arm-eabi/4.1.1/../../../../arm-eabi/lib/thumb\libg.a(lib_a-strcat.o)
                              NeoConfig.o (strcat)
c:/devkitpro/devkitarm/bin/../lib/gcc/arm-eabi/4.1.1/../../../../arm-eabi/lib/thumb\libg.a(lib_a-strchr.o)
                              NeoSystem.o (strchr)
c:/devkitpro/devkitarm/bin/../lib/gcc/arm-eabi/4.1.1/../../../../arm-eabi/lib/thumb\libg.a(lib_a-strcmp.o)
                              NeoSystem.o (strcmp)
c:/devkitpro/devkitarm/bin/../lib/gcc/arm-eabi/4.1.1/../../../../arm-eabi/lib/thumb\libg.a(lib_a-strcpy.o)
                              NeoSystem.o (strcpy)
c:/devkitpro/devkitarm/bin/../lib/gcc/arm-eabi/4.1.1/../../../../arm-eabi/lib/thumb\libg.a(lib_a-strdup.o)
                              NeoSystem.o (strdup)
c:/devkitpro/devkitarm/bin/../lib/gcc/arm-eabi/4.1.1/../../../../arm-eabi/lib/thumb\libg.a(lib_a-strdup_r.o)
                              c:/devkitpro/devkitarm/bin/../lib/gcc/arm-eabi/4.1.1/../../../../arm-eabi/lib/thumb\libg.a(lib_a-strdup.o) (_strdup_r)
c:/devkitpro/devkitarm/bin/../lib/gcc/arm-eabi/4.1.1/../../../../arm-eabi/lib/thumb\libg.a(lib_a-strlen.o)
                              directory.o (strlen)
c:/devkitpro/devkitarm/bin/../lib/gcc/arm-eabi/4.1.1/../../../../arm-eabi/lib/thumb\libg.a(lib_a-strncasecmp.o)
                              directory.o (strncasecmp)
c:/devkitpro/devkitarm/bin/../lib/gcc/arm-eabi/4.1.1/../../../../arm-eabi/lib/thumb\libg.a(lib_a-strncmp.o)
                              directory.o (strncmp)
c:/devkitpro/devkitarm/bin/../lib/gcc/arm-eabi/4.1.1/../../../../arm-eabi/lib/thumb\libg.a(lib_a-strncpy.o)
                              guiLabel.o (strncpy)
c:/devkitpro/devkitarm/bin/../lib/gcc/arm-eabi/4.1.1/../../../../arm-eabi/lib/thumb\libg.a(lib_a-strnlen.o)
                              directory.o (strnlen)
c:/devkitpro/devkitarm/bin/../lib/gcc/arm-eabi/4.1.1/../../../../arm-eabi/lib/thumb\libg.a(lib_a-strpbrk.o)
                              directory.o (strpbrk)
c:/devkitpro/devkitarm/bin/../lib/gcc/arm-eabi/4.1.1/../../../../arm-eabi/lib/thumb\libg.a(lib_a-strrchr.o)
                              NeoConfig.o (strrchr)
c:/devkitpro/devkitarm/bin/../lib/gcc/arm-eabi/4.1.1/../../../../arm-eabi/lib/thumb\libg.a(lib_a-strupr.o)
                              directory.o (strupr)
c:/devkitpro/devkitarm/bin/../lib/gcc/arm-eabi/4.1.1/../../../../arm-eabi/lib/thumb\libg.a(lib_a-sysclose.o)
                              EmuSystem.o (close)
c:/devkitpro/devkitarm/bin/../lib/gcc/arm-eabi/4.1.1/../../../../arm-eabi/lib/thumb\libg.a(lib_a-sysfstat.o)
                              EmuSystem.o (fstat)
c:/devkitpro/devkitarm/bin/../lib/gcc/arm-eabi/4.1.1/../../../../arm-eabi/lib/thumb\libg.a(lib_a-syslseek.o)
                              EmuSystem.o (lseek)
c:/devkitpro/devkitarm/bin/../lib/gcc/arm-eabi/4.1.1/../../../../arm-eabi/lib/thumb\libg.a(lib_a-sysopen.o)
                              EmuSystem.o (open)
c:/devkitpro/devkitarm/bin/../lib/gcc/arm-eabi/4.1.1/../../../../arm-eabi/lib/thumb\libg.a(lib_a-sysread.o)
                              EmuSystem.o (read)
c:/devkitpro/devkitarm/bin/../lib/gcc/arm-eabi/4.1.1/../../../../arm-eabi/lib/thumb\libg.a(lib_a-syswrite.o)
                              EmuSystem.o (write)
c:/devkitpro/devkitarm/bin/../lib/gcc/arm-eabi/4.1.1/../../../../arm-eabi/lib/thumb\libg.a(lib_a-freer.o)
                              c:/devkitpro/devkitarm/bin/../lib/gcc/arm-eabi/4.1.1/../../../../arm-eabi/lib/thumb\libg.a(lib_a-malloc.o) (_free_r)
c:/devkitpro/devkitarm/bin/../lib/gcc/arm-eabi/4.1.1/../../../../arm-eabi/lib/thumb\libg.a(lib_a-impure.o)
                              c:/devkitpro/devkitarm/bin/../lib/gcc/arm-eabi/4.1.1/../../../../arm-eabi/lib/thumb\libg.a(lib_a-malloc.o) (_impure_ptr)
c:/devkitpro/devkitarm/bin/../lib/gcc/arm-eabi/4.1.1/../../../../arm-eabi/lib/thumb\libg.a(lib_a-reent.o)
                              c:/devkitpro/devkitarm/bin/../lib/gcc/arm-eabi/4.1.1/../../../../arm-eabi/lib/thumb\libg.a(lib_a-sbrkr.o) (errno)
c:/devkitpro/devkitarm/bin/../lib/gcc/arm-eabi/4.1.1/../../../../arm-eabi/lib/thumb\libsysbase.a(iosupport.o)
                              libfat.o (AddDevice)
c:/devkitpro/devkitarm/bin/../lib/gcc/arm-eabi/4.1.1/../../../../arm-eabi/lib/thumb\libsysbase.a(close.o)
                              c:/devkitpro/devkitarm/bin/../lib/gcc/arm-eabi/4.1.1/../../../../arm-eabi/lib/thumb\libg.a(lib_a-sysclose.o) (_close)
c:/devkitpro/devkitarm/bin/../lib/gcc/arm-eabi/4.1.1/../../../../arm-eabi/lib/thumb\libsysbase.a(fstat.o)
                              c:/devkitpro/devkitarm/bin/../lib/gcc/arm-eabi/4.1.1/../../../../arm-eabi/lib/thumb\libg.a(lib_a-sysfstat.o) (_fstat)
c:/devkitpro/devkitarm/bin/../lib/gcc/arm-eabi/4.1.1/../../../../arm-eabi/lib/thumb\libsysbase.a(lseek.o)
                              c:/devkitpro/devkitarm/bin/../lib/gcc/arm-eabi/4.1.1/../../../../arm-eabi/lib/thumb\libg.a(lib_a-syslseek.o) (_lseek)
c:/devkitpro/devkitarm/bin/../lib/gcc/arm-eabi/4.1.1/../../../../arm-eabi/lib/thumb\libsysbase.a(open.o)
                              c:/devkitpro/devkitarm/bin/../lib/gcc/arm-eabi/4.1.1/../../../../arm-eabi/lib/thumb\libg.a(lib_a-sysopen.o) (_open)
c:/devkitpro/devkitarm/bin/../lib/gcc/arm-eabi/4.1.1/../../../../arm-eabi/lib/thumb\libsysbase.a(read.o)
                              c:/devkitpro/devkitarm/bin/../lib/gcc/arm-eabi/4.1.1/../../../../arm-eabi/lib/thumb\libg.a(lib_a-sysread.o) (_read)
c:/devkitpro/devkitarm/bin/../lib/gcc/arm-eabi/4.1.1/../../../../arm-eabi/lib/thumb\libsysbase.a(sbrk.o)
                              c:/devkitpro/devkitarm/bin/../lib/gcc/arm-eabi/4.1.1/../../../../arm-eabi/lib/thumb\libg.a(lib_a-sbrkr.o) (_sbrk)
c:/devkitpro/devkitarm/bin/../lib/gcc/arm-eabi/4.1.1/../../../../arm-eabi/lib/thumb\libsysbase.a(write.o)
                              c:/devkitpro/devkitarm/bin/../lib/gcc/arm-eabi/4.1.1/../../../../arm-eabi/lib/thumb\libg.a(lib_a-syswrite.o) (_write)
c:/devkitpro/devkitarm/bin/../lib/gcc/arm-eabi/4.1.1/../../../../arm-eabi/lib/thumb\libsysbase.a(malloc_vars.o)
                              c:/devkitpro/devkitarm/bin/../lib/gcc/arm-eabi/4.1.1/../../../../arm-eabi/lib/thumb/ds_arm9_crt0.o (fake_heap_end)
c:/devkitpro/devkitarm/bin/../lib/gcc/arm-eabi/4.1.1/../../../../arm-eabi/lib/thumb\libsysbase.a(chdir.o)
                              libfat.o (chdir)
c:/devkitpro/devkitarm/bin/../lib/gcc/arm-eabi/4.1.1/../../../../arm-eabi/lib/thumb\libsysbase.a(dir.o)
                              NeoSystem.o (dirnext)

Allocating common symbols
Common symbol       size              file

g_jediTable         0xc40             NeoAudioStream.arm.o
errno               0x4               c:/devkitpro/devkitarm/bin/../lib/gcc/arm-eabi/4.1.1/../../../../arm-eabi/lib/thumb\libg.a(lib_a-reent.o)
g_header            0x74              NeoSystem.o
g_currentFps        0x4               NeoVideo.o
g_frames            0x4               NeoVideo.o
g_spriteCount       0x4               NeoVideoSprites.arm.o

Memory Configuration

Name             Origin             Length             Attributes
rom              0x08000000         0x02000000
ewram            0x02000000         0x003ff000
dtcm             0x0b000000         0x00004000
itcm             0x01000000         0x00008000
*default*        0x00000000         0xffffffff

Linker script and memory map

                0x01000000                __itcm_start = 0x1000000
                0x023ff000                __ewram_end = 0x23ff000
                0x023ff000                __eheap_end = 0x23ff000
                0x0b000000                __dtcm_start = 0xb000000
                0x0b004000                __dtcm_top = 0xb004000
                0x0b003ff8                __irq_flags = (__dtcm_top - 0x8)
                0x0b003ffc                __irq_vector = (__dtcm_top - 0x4)
                0x0b003f00                __sp_svc = (__dtcm_top - 0x100)
                0x0b003e00                __sp_irq = (__sp_svc - 0x100)
                0x0b003d00                __sp_usr = (__sp_irq - 0x100)

.init           0x02000000      0x22c
                0x02000000                __text_start = .
 *(.init)
 .init          0x02000000      0x220 c:/devkitpro/devkitarm/bin/../lib/gcc/arm-eabi/4.1.1/../../../../arm-eabi/lib/thumb/ds_arm9_crt0.o
                0x02000000                _start
 .init          0x02000220        0x4 c:/devkitpro/devkitarm/bin/../lib/gcc/arm-eabi/4.1.1/thumb/crti.o
                0x02000220                _init
 .init          0x02000224        0x8 c:/devkitpro/devkitarm/bin/../lib/gcc/arm-eabi/4.1.1/thumb/crtn.o
                0x0200022c                . = ALIGN (0x4)

.plt
 *(.plt)

.text           0x02000240    0x2c9e0
 *(EXCLUDE_FILE(*.itcm*) .text)
 .text          0x02000240        0x0 c:/devkitpro/devkitarm/bin/../lib/gcc/arm-eabi/4.1.1/../../../../arm-eabi/lib/thumb/ds_arm9_crt0.o
 .text          0x02000240        0x0 c:/devkitpro/devkitarm/bin/../lib/gcc/arm-eabi/4.1.1/thumb/crti.o
 .text          0x02000240       0x70 c:/devkitpro/devkitarm/bin/../lib/gcc/arm-eabi/4.1.1/thumb/crtbegin.o
 .text          0x020002b0        0x0 gui.bin.o
 .text          0x020002b0        0x0 Disa.o
 .text          0x020002b0      0x348 EmuSystem.o
                0x020003bc                systemRamAlloc
                0x02000544                systemClose
                0x020005a4                systemSeek
                0x02000564                systemWrite
                0x020002c0                systemGetMs
                0x02000358                systemSlot2Reset
                0x020004e4                systemOpen
                0x0200036c                systemRamReset
                0x020003d0                systemIsSlot2Active
                0x020004d8                systemAlloc
                0x02000340                systemSlot2Lock
                0x02000380                systemGetSlot2Free
                0x020003a8                systemSlot2Alloc
                0x0200051c                systemFileSize
                0x020002fc                systemPanic_d
                0x020003e4                systemInit
                0x0200034c                systemSlot2Unlock
                0x02000394                systemGetRamFree
                0x020002cc                systemWaitKey
                0x02000494                systemReadOffset
                0x020004cc                systemRealloc
                0x020005d0                systemRead
 .text          0x020005f8      0x3e4 guiBase.o
                0x02000710                guiObjAllocChild_r
                0x02000620                guiFramePop
                0x020005f8                guiFramePush_r
                0x02000700                guiSystemRender
                0x0200062c                guiGetRoot
                0x02000998                guiSystemInit
                0x02000760                guiObjCreateChild_r
                0x0200060c                guiFrameNew_r
                0x02000640                guiHeapAlloc
                0x020006d4                guiBroadcastEvent
                0x02000774                guiSystemProcess
                0x02000660                guiFindObjectAt
 .text          0x020009dc       0x7c guiButton.o
 .text          0x02000a58       0xa0 guiCheckbox.o
                0x02000a58                guiCheckboxSetChecked
 .text          0x02000af8      0x15c guiConsole.o
                0x02000af8                guiConsoleLog
                0x02000c0c                guiConsoleDump
                0x02000bf4                guiConsoleLogf
                0x02000bd8                guiConsoleLogfv
 .text          0x02000c54       0x6c guiLabel.o
                0x02000cac                guiLabelSetText
                0x02000c90                guiLabelSetTextv
 .text          0x02000cc0      0x12c guiMenu.o
                0x02000dbc                guiMenuCreateChild
                0x02000d9c                guiMenuAddItem
 .text          0x02000dec      0x14c guiObject.o
                0x02000df0                guiObjIsType_r
                0x02000eac                guiObjForeachChild
                0x02000e68                guiObjRenderDirty
                0x02000ec4                guiObjSendEvent
                0x02000ea4                guiObjSetHandler
                0x02000e08                guiObjGetGlobalBounds
 .text          0x02000f38       0xd4 guiRadioButton.o
                0x02000f38                guiRadioButtonSetGroup
 .text          0x0200100c      0x2fc guiRender.o
                0x02001058                guiRenderFrame
                0x02001114                guiRenderFrameBounds
                0x020011b0                guiRenderStringn
                0x0200100c                guiRenderLogo
                0x0200114c                guiRenderVertString
                0x0200117c                guiRenderString
                0x020011ec                guiRenderClearBounds
                0x02001138                guiRenderChar
                0x0200125c                guiRenderInit
                0x02001238                guiRenderClear
 .text          0x02001308      0x100 guiStatus.o
 .text          0x02001408        0x0 LayoutDebug.o
 .text          0x02001408      0x2dc LayoutInput.o
 .text          0x020016e4      0x408 LayoutMain.o
 .text          0x02001aec      0x194 LayoutRomSelect.o
 .text          0x02001c80       0x4c LinearHeap.o
                0x02001cc0                linearHeapGetFree
                0x02001ca4                linearHeapReset
                0x02001c8c                linearHeapAlloc
                0x02001cac                linearHeapClear
                0x02001c80                linearHeapInit
 .text          0x02001ccc      0xca8 NeoAudioStream.arm.o
                0x02002718                neoAudioStreamReset
                0x0200240c                neoAudioStreamProcess
                0x020027e0                neoAudioStreamInit
 .text          0x02002974      0x288 NeoConfig.o
                0x02002a84                neoLoadConfig
                0x02002974                neoSaveConfig
 .text          0x02002bfc      0x4b8 NeoCpu.o
                0x02002fc4                neoDebugCpuCheckPc
                0x02002fe4                cpuReset
                0x02002c04                cpuNullWrite32
                0x02002c0c                cpuUnmapped16
                0x02003010                cpuDisassemble
                0x02002c14                cpuUnmapped32
                0x02002c1c                neoCpuInitMemoryTable
                0x02002c08                cpuUnmapped8
                0x02003024                cpuExecute
                0x02002bfc                cpuNullWrite8
                0x02002c00                cpuNullWrite16
                0x0200301c                cpuGetPC
                0x02003014                cpuInterrupt
                0x02003038                cpuInit
 .text          0x020030b4       0xe4 NeoIO.o
                0x02003140                neoWriteAudioCommand16
                0x020030b4                neoWriteSystemLatch16
                0x0200316c                neoWriteAudioCommand8
 .text          0x02003198      0x588 NeoMemory.o
                0x02003228                neoEvictBank
                0x02003304                neoLoadBank2
                0x02003204                neoWriteCard16
                0x020031a8                neoReadCard16
                0x02003198                neoSetRomBankAddr
                0x02003414                neoBankedRomPc
                0x0200342c                neoWriteRomBank
                0x0200339c                neoBankPC
                0x02003294                neoMemoryLoadBiosVector
                0x020032ac                neoLoadBank
                0x0200324c                neoEvictBank2
                0x020031dc                neoWriteCard8
                0x0200346c                neoMemoryInit
                0x02003270                neoMemoryLoadProgramVector
 .text          0x02003720        0x0 NeoProfiler.o
 .text          0x02003720      0x6f0 NeoProtection.o
                0x0200399c                neoInstallProtection
 .text          0x02003e10      0x854 NeoSystem.o
                0x02004568                neoSystemLoadSprite2
                0x02003e14                neoSystemRegionSize
                0x02004584                neoSystemLoadSprite
                0x02004014                neoSystemExecute
                0x02003e50                neoSystemGetRomName
                0x020044b8                neoSystemLoadRegionEx
                0x020045a0                neoSystemInit
                0x020044f4                neoSystemLoadRegion
                0x02003e24                neoSystemSetClockDivide
                0x0200447c                neoSystemReadRom
                0x0200454c                neoSystemLoadTile
                0x02003e44                neoSystemGetRomCount
                0x02003e5c                neoSystemSetEnabled
                0x02004504                neoSystemReset
                0x02004134                neoSystemIrqAk
                0x0200449c                neoSystemReadRegion
                0x02004458                stringCompare
                0x02004174                neoSystemClose
                0x0200411c                neoSystemIrq
                0x02003e10                neoSystemIPCSync
                0x02004468                neoSystemVramHAlloc
                0x02004198                neoSystemOpen
 .text          0x02004664      0x490 NeoVideo.o
                0x0200475c                neoVideoExit
                0x02004884                neoVideoDrawFrame
                0x02004744                neoVideoSetSize
                0x02004994                neoVideoInit
                0x02004750                neoVideoGetSize
 .text          0x02004af4      0x5bc NeoVideoFixed.arm.o
                0x02004b44                neoFixedExit
                0x02004bb8                neoDrawFixed
                0x02004fc4                neoFixedInit
                0x02004b48                neoLoadTiles
 .text          0x020050b0      0x3f4 NeoVideoPalette.arm.o
                0x020050d8                neoUpdatePalette
                0x020050b0                neoVideoPaletteBank
                0x020050d4                neoPaletteExit
                0x02005480                neoPaletteInit
                0x020052c4                neoLoadPalette
 .text          0x020054a4      0xbfc NeoVideoSprites.arm.o
                0x020054a4                neoSpriteExit
                0x02005544                neoDrawSprites
                0x02005d48                neoSpriteInit
                0x020054a8                neoLoadSprites
 .text          0x020060a0      0x40c pd4990a.o
                0x02006100                pd4990a_increment_month
                0x020060a0                pd4990a_init
                0x02006498                neoWrite4990a16
                0x02006138                pd4990a_increment_day
                0x02006344                pd4990a_serial_control
                0x020061e4                pd4990a_addretrace
                0x0200628c                read_4990_output
                0x020062b4                read_4990_databit
                0x020062a8                read_4990_testbit
 .text          0x020064ac      0x57c ram.o
                0x02006a00                ram_turbo
                0x02006614                _opera_unlock
                0x020069bc                ram_unlock
                0x02006704                _ez_unlock
                0x020064fc                _sc_lock
                0x02006820                ram_init
                0x020069e0                ram_lock
                0x02006514                _m3_unlock
                0x02006630                _g6_unlock
                0x02006778                _ez_lock
                0x020069b0                ram_size
                0x0200669c                _g6_lock
                0x02006624                _opera_lock
                0x02006990                ram_type
                0x020064e0                _sc_unlock
                0x0200699c                ram_type_string
                0x02006594                _m3_lock
 .text          0x02006a28      0x520 Sprintf.o
                0x02006f2c                neoSprintf
                0x02006ba0                neoVsnprintf
 .text          0x02006f48       0x7c template.o
                0x02006f48                main
 .text          0x02006fc4      0x2a8 cache.o
                0x02007078                _FAT_cache_flush
                0x02007140                _FAT_cache_writePartialSector
                0x020070bc                _FAT_cache_invalidate
                0x020071d4                _FAT_cache_destructor
                0x020071fc                _FAT_cache_constructor
                0x0200718c                _FAT_cache_readPartialSector
                0x020070e4                _FAT_cache_eraseWritePartialSector
 .text          0x0200726c      0xd88 directory.o
                0x02007a00                _FAT_directory_chdir
                0x0200732c                _FAT_directory_entryStat
                0x02007a30                _FAT_directory_isValidAlias
                0x020074d0                _FAT_directory_removeEntry
                0x02007404                _FAT_directory_getRootEntry
                0x02007568                _FAT_directory_entryFromPosition
                0x02007658                _FAT_directory_getNextEntry
                0x020077d8                _FAT_directory_getFirstEntry
                0x02007ac0                _FAT_directory_isValidLfn
                0x0200730c                _FAT_directory_entryGetCluster
                0x02007b04                _FAT_directory_addEntry
                0x02007878                _FAT_directory_entryFromPath
 .text          0x02007ff4      0x5e4 fatdir.o
                0x020080bc                _FAT_stat_r
                0x02008034                _FAT_dirnext_r
                0x020082a8                _FAT_unlink_r
                0x02008120                _FAT_rename_r
                0x02008018                _FAT_link_r
                0x02008024                _FAT_dirclose_r
                0x0200824c                _FAT_chdir_r
                0x02008088                _FAT_dirreset_r
                0x020083a4                _FAT_diropen_r
                0x02008434                _FAT_mkdir_r
 .text          0x020085d8      0xc18 fatfile.o
                0x02008808                _FAT_write_r
                0x020086fc                _FAT_seek_r
                0x02008c48                _FAT_read_r
                0x02008f68                _FAT_open_r
                0x0200868c                _FAT_cluster_lookup
                0x02008e68                _FAT_close_r
                0x0200861c                _FAT_fstat_r
 .text          0x020091f0      0x334 file_allocation_table.o
                0x02009414                _FAT_fat_clearLinks
                0x020091f0                _FAT_fat_nextCluster
                0x020094d0                _FAT_fat_linkFreeClusterCleared
                0x0200945c                _FAT_fat_linkFreeCluster
                0x020092d4                _FAT_fat_lastCluster
 .text          0x02009524       0xe8 filetime.o
                0x0200957c                _FAT_filetime_getDateFromRTC
                0x02009524                _FAT_filetime_to_time_t
                0x020095c0                _FAT_filetime_getTimeFromRTC
 .text          0x0200960c       0x94 libfat.o
                0x0200960c                fatSetDefaultInterface
                0x02009630                fatMountCustomInterface
                0x02009618                fatUnsafeUnmount
                0x0200963c                fatMountNormalInterface
                0x02009624                fatUnmount
                0x02009690                fatInitDefault
                0x02009648                fatInit
 .text          0x020096a0      0x490 partition.o
                0x0200972c                _FAT_partition_getPartitionFromPath
                0x02009700                _FAT_partition_setDefaultPartition
                0x02009a68                _FAT_partition_mountCustomInterface
                0x020097f8                _FAT_partition_unmount
                0x02009abc                _FAT_partition_mount
                0x020096dc                _FAT_partition_setDefaultInterface
                0x020097ac                _FAT_partition_unsafeUnmount
 .text          0x02009b30       0xc4 disc.o
                0x02009bb4                _FAT_disc_findInterface
                0x02009b70                _FAT_disc_dsSlotFindInterface
                0x02009b30                _FAT_disc_gbaSlotFindInterface
 .text          0x02009bf4      0x2c8 io_cf_common.o
                0x02009bf4                _CF_isInserted
                0x02009d64                _CF_writeSectors
                0x02009c68                _CF_readSectors
                0x02009e6c                _CF_startup
                0x02009c14                _CF_clearStatus
                0x02009e60                _CF_shutdown
 .text          0x02009ebc      0x1f4 io_efa2.o
                0x0200a020                _EFA2_isInserted
                0x02009fc4                _EFA2_startUp
                0x0200a03c                _EFA2_shutdown
                0x02009fc0                _EFA2_writeSectors
                0x02009fbc                _EFA2_clearStatus
                0x0200a040                _EFA2_readSectors
 .text          0x0200a0b0      0x2bc io_fcsr.o
                0x0200a260                _FCSR_isInserted
                0x0200a0b4                _FCSR_writeSectors
                0x0200a0b0                _FCSR_clearStatus
                0x0200a334                _FCSR_shutdown
                0x0200a2b4                _FCSR_readSectors
                0x0200a114                _FCSR_startUp
 .text          0x0200a36c       0x70 io_m3_common.o
                0x0200a36c                _M3_changeMode
 .text          0x0200a3dc       0x1c io_m3cf.o
                0x0200a3dc                _M3CF_startup
 .text          0x0200a3f8      0x4dc io_m3sd.o
                0x0200a748                _M3SD_clearStatus
                0x0200a568                _M3SD_cmd_17byte_response
                0x0200a64c                _M3SD_readSectors
                0x0200a614                _M3SD_isInserted
                0x0200a76c                _M3SD_writeSectors
                0x0200a6c4                _M3SD_shutdown
                0x0200a550                _M3SD_cmd_6byte_response
                0x0200a754                _M3SD_startUp
 .text          0x0200a8d4       0x14 io_mpcf.o
                0x0200a8d4                _MPCF_startup
 .text          0x0200a8e8      0x7f8 io_njsd.o
                0x0200ae54                _NJSD_writeSectors
                0x0200acb8                _NJSD_clearStatus
                0x0200ac5c                _NJSD_cmd_6byte_response
                0x0200ac8c                _NJSD_isInserted
                0x0200b03c                _NJSD_startup
                0x0200acc4                _NJSD_shutdown
                0x0200acd0                _NJSD_readSectors
                0x0200ac74                _NJSD_cmd_17byte_response
 .text          0x0200b0e0      0x630 io_nmmc.o
                0x0200b300                _NMMC_isInserted
                0x0200b3fc                _NMMC_writeSectors
                0x0200b570                _NMMC_startUp
                0x0200b2f4                _NMMC_shutdown
                0x0200b27c                _NMMC_clearStatus
                0x0200b35c                _NMMC_readSectors
 .text          0x0200b710       0x18 io_sc_common.o
                0x0200b710                _SC_changeMode
 .text          0x0200b728       0x18 io_sccf.o
                0x0200b728                _SCCF_startup
 .text          0x0200b740      0x370 io_scsd.o
                0x0200b838                _SCSD_shutdown
                0x0200b950                _SCSD_startUp
                0x0200b8b8                _SCSD_isInserted
                0x0200b944                _SCSD_clearStatus
                0x0200b964                _SCSD_cmd_17byte_response
                0x0200b97c                _SCSD_cmd_6byte_response
                0x0200ba40                _SCSD_readSectors
                0x0200b994                _SCSD_writeSectors
 .text          0x0200bab0      0x220 io_sd_common.o
                0x0200bab0                _SD_CRC7
                0x0200baf8                _SD_CRC16
                0x0200bbd8                _SD_InitCard
 .text          0x0200bcd0      0x15c NeoIPC.o
                0x0200bd6c                neoIPCRecvCommand
                0x0200bd14                neoIPCSendCommandAsync
                0x0200bde0                neoIPCSendCommand
                0x0200bdc8                neoIPCWaitCommandDone
                0x0200bd44                neoIPCCheckCommandDone
                0x0200bd90                neoIPCAckCommand
                0x0200bdf0                neoIPCWaitCommand
                0x0200bcf4                neoIPCInit
 *fill*         0x0200be2c        0x4 ff
 .text          0x0200be30    0x15840 Cyclone.o
                0x0200bfc4                CycloneFlushIrq
                0x0200be30                CycloneVer
                0x0200bf64                CycloneUnpack
                0x0200bf0c                CyclonePack
                0x0200bea8                CycloneInit
                0x0200be90                CycloneEndNoBack
                0x0200beac                CycloneSetSr
                0x0200be34                CycloneRun
                0x0200bedc                CycloneGetSr
 .text          0x02021670       0x70 NeoAudioStreamAsm.o
 .text          0x020216e0        0x0 NeoCpuAsm.o
 .text          0x020216e0      0x1b0 NeoIOAsm.o
                0x02021750                neoReadVideo16
                0x02021800                neoWriteWatchdog8
                0x02021810                neoReadCtrl116
                0x02021854                neoReadCtrl316
                0x020216e0                neoIOInit
                0x020217f4                neoWriteWatchdog16
                0x0202175c                neoReadVideo8
                0x0202184c                neoReadCtrl216
                0x02021780                neoReadVideo32
                0x0202185c                neoReadCoin16
 .text          0x02021890      0x198 NeoMemoryAsm.o
                0x020219d0                neoReadBankedRom16Uncached
                0x02021924                neoReadSram32
                0x02021890                neoWriteSram8
                0x02021910                neoReadSram16
                0x020218c8                neoWriteSram16
                0x020219e8                neoReadBankedRom32Uncached
                0x020218fc                neoReadSram8
                0x02021a08                neoBankedPcUncached
                0x020219b4                neoReadBankedRom8Uncached
 .text          0x02021a28       0x90 NeoVideoAsm.o
                0x02021a64                neoVideoWritePal8
                0x02021a9c                neoVideoReadPal16
                0x02021a28                neoVideoWritePal16
 *fill*         0x02021ab8        0x8 ff
 .text          0x02021ac0     0x8000 io_dldi.o
                0x02021b20                _io_dldi
 .text          0x02029ac0       0xc0 io_scsd_s.o
                0x02029ac0                _SCSD_writeData_s
 .text          0x02029b80      0x100 C:/devkitPro/libnds/lib\libnds9.a(keys.o)
                0x02029bb0                keysSetRepeat
                0x02029ba0                keysDownRepeat
                0x02029b80                keysHeld
                0x02029bd4                keysUp
                0x02029b8c                keysDown
                0x02029bec                scanKeys
 .text          0x02029c80       0x1c C:/devkitPro/libnds/lib\libnds9.a(touch.o)
                0x02029c80                touchReadXY
 .text          0x02029c9c      0x110 C:/devkitPro/libnds/lib\libnds9.a(video.o)
                0x02029d5c                vramSetBankF
                0x02029cec                vramRestoreMainBanks
                0x02029d84                vramSetBankH
                0x02029d34                vramSetBankD
                0x02029d48                vramSetBankE
                0x02029d70                vramSetBankG
                0x02029ce0                vramRestorMainBanks
                0x02029d0c                vramSetBankB
                0x02029d20                vramSetBankC
                0x02029d98                vramSetBankI
                0x02029c9c                vramSetMainBanks
                0x02029cf8                vramSetBankA
 .text          0x02029dac      0x670 C:/devkitPro/libnds/lib\libnds9.a(card.o)
                0x02029f8c                cardEepromGetType
                0x02029e10                cardStartTransfer
                0x02029eb4                cardReadHeader
                0x0202a018                cardReadEeprom
                0x02029ed0                cardReadID
                0x0202a26c                cardEepromGetSize
                0x02029e88                cardRead00
                0x02029ef0                cardEepromCommand
                0x0202a3c8                cardEepromChipErase
                0x02029dd0                cardPolledTransfer
                0x0202a0c4                cardWriteEeprom
                0x02029e58                cardWriteAndRead
                0x02029dac                cardWriteCommand
                0x0202a320                cardEepromSectorErase
                0x02029f78                cardEepromReadID
 .text          0x0202a41c      0x208 C:/devkitPro/libnds/lib\libnds9.a(interrupts.o)
                0x0202a584                irqEnable
                0x0202a420                irqSet
                0x0202a5d8                irqDisable
                0x0202a488                irqInit
                0x0202a41c                irqDummy
                0x0202a554                irqInitHandler
                0x0202a4d4                irqClear
 .text          0x0202a624       0x70 C:/devkitPro/libnds/lib\libnds9.a(dcache.o)
                0x0202a624                DC_FlushAll
                0x0202a650                DC_FlushRange
                0x0202a678                DC_InvalidateRange
                0x0202a66c                DC_InvalidateAll
 *fill*         0x0202a694        0xc ff
 .text          0x0202a6a0       0x70 C:/devkitPro/libnds/lib\libnds9.a(biosCalls.o)
                0x0202a6b0                swiSleep
                0x0202a6ea                swiDecompressLZSSVram
                0x0202a6d2                swiFastCopy
                0x0202a6d6                swiSqrt
                0x0202a6a0                swiSoftReset
                0x0202a6da                swiCRC16
                0x0202a6ee                swiDecompressHuffman
                0x0202a706                swiSetHaltCR
                0x0202a6bc                swiRemainder
                0x0202a6e2                swiUnpackBits
                0x0202a6e6                swiDecompressLZSSWram
                0x0202a702                swiDecodeDelta16
                0x0202a6a4                swiDelay
                0x0202a6c2                swiDivMod
                0x0202a6f6                swiDecompressRLEVram
                0x0202a6f2                swiDecompressRLEWram
                0x0202a6fe                swiDecodeDelta8
                0x0202a6b8                swiDivide
                0x0202a6b4                swiChangeSoundBias
                0x0202a6ac                swiWaitForVBlank
                0x0202a6a8                swiIntrWait
                0x0202a6de                swiIsDebugger
                0x0202a6fa                swiWaitForIRQ
                0x0202a6ce                swiCopy
 .text          0x0202a710        0x0 C:/devkitPro/libnds/lib\libnds9.a(interruptDispatcher.o)
 .text          0x0202a710       0x8c c:/devkitpro/devkitarm/bin/../lib/gcc/arm-eabi/4.1.1/thumb\libgcc.a(_udivsi3.o)
                0x0202a710                __udivsi3
                0x0202a710                __aeabi_uidiv
                0x0202a78c                __aeabi_uidivmod
 .text          0x0202a79c       0xa4 c:/devkitpro/devkitarm/bin/../lib/gcc/arm-eabi/4.1.1/thumb\libgcc.a(_divsi3.o)
                0x0202a79c                __aeabi_idiv
                0x0202a79c                __divsi3
                0x0202a830                __aeabi_idivmod
 .text          0x0202a840        0x4 c:/devkitpro/devkitarm/bin/../lib/gcc/arm-eabi/4.1.1/thumb\libgcc.a(_dvmd_tls.o)
                0x0202a840                __aeabi_ldiv0
                0x0202a840                __div0
                0x0202a840                __aeabi_idiv0
 .text          0x0202a844       0x3c c:/devkitpro/devkitarm/bin/../lib/gcc/arm-eabi/4.1.1/thumb\libgcc.a(_call_via_rX.o)
                0x0202a84c                _call_via_r2
                0x0202a85c                _call_via_r6
                0x0202a858                _call_via_r5
                0x0202a850                _call_via_r3
                0x0202a870                _call_via_fp
                0x0202a864                _call_via_r8
                0x0202a860                _call_via_r7
                0x0202a844                _call_via_r0
                0x0202a86c                _call_via_sl
                0x0202a878                _call_via_sp
                0x0202a868                _call_via_r9
                0x0202a854                _call_via_r4
                0x0202a848                _call_via_r1
                0x0202a874                _call_via_ip
                0x0202a87c                _call_via_lr
 .text          0x0202a880        0x0 c:/devkitpro/devkitarm/bin/../lib/gcc/arm-eabi/4.1.1/../../../../arm-eabi/lib/thumb\libg.a(lib_a-ctype_.o)
 .text          0x0202a880       0x88 c:/devkitpro/devkitarm/bin/../lib/gcc/arm-eabi/4.1.1/../../../../arm-eabi/lib/thumb\libg.a(lib_a-init.o)
                0x0202a8b0                __libc_init_array
                0x0202a880                __libc_fini_array
 .text          0x0202a908       0x30 c:/devkitpro/devkitarm/bin/../lib/gcc/arm-eabi/4.1.1/../../../../arm-eabi/lib/thumb\libg.a(lib_a-malloc.o)
                0x0202a920                malloc
                0x0202a908                free
 .text          0x0202a938      0x54c c:/devkitpro/devkitarm/bin/../lib/gcc/arm-eabi/4.1.1/../../../../arm-eabi/lib/thumb\libg.a(lib_a-mallocr.o)
                0x0202a938                _malloc_r
 .text          0x0202ae84       0x5c c:/devkitpro/devkitarm/bin/../lib/gcc/arm-eabi/4.1.1/../../../../arm-eabi/lib/thumb\libg.a(lib_a-memcpy.o)
                0x0202ae84                memcpy
 .text          0x0202aee0       0x84 c:/devkitpro/devkitarm/bin/../lib/gcc/arm-eabi/4.1.1/../../../../arm-eabi/lib/thumb\libg.a(lib_a-memmove.o)
                0x0202aee0                memmove
 .text          0x0202af64       0x60 c:/devkitpro/devkitarm/bin/../lib/gcc/arm-eabi/4.1.1/../../../../arm-eabi/lib/thumb\libg.a(lib_a-memset.o)
                0x0202af64                memset
 .text          0x0202afc4        0x8 c:/devkitpro/devkitarm/bin/../lib/gcc/arm-eabi/4.1.1/../../../../arm-eabi/lib/thumb\libg.a(lib_a-mlock.o)
                0x0202afc8                __malloc_unlock
                0x0202afc4                __malloc_lock
 .text          0x0202afcc      0x5ec c:/devkitpro/devkitarm/bin/../lib/gcc/arm-eabi/4.1.1/../../../../arm-eabi/lib/thumb\libg.a(lib_a-qsort.o)
                0x0202afcc                qsort
 .text          0x0202b5b8       0x1c c:/devkitpro/devkitarm/bin/../lib/gcc/arm-eabi/4.1.1/../../../../arm-eabi/lib/thumb\libg.a(lib_a-realloc.o)
                0x0202b5b8                realloc
 .text          0x0202b5d4      0x3d4 c:/devkitpro/devkitarm/bin/../lib/gcc/arm-eabi/4.1.1/../../../../arm-eabi/lib/thumb\libg.a(lib_a-reallocr.o)
                0x0202b5d4                _realloc_r
 .text          0x0202b9a8       0x2c c:/devkitpro/devkitarm/bin/../lib/gcc/arm-eabi/4.1.1/../../../../arm-eabi/lib/thumb\libg.a(lib_a-sbrkr.o)
                0x0202b9a8                _sbrk_r
 .text          0x0202b9d4       0x88 c:/devkitpro/devkitarm/bin/../lib/gcc/arm-eabi/4.1.1/../../../../arm-eabi/lib/thumb\libg.a(lib_a-strcasecmp.o)
                0x0202b9d4                strcasecmp
 .text          0x0202ba5c       0x58 c:/devkitpro/devkitarm/bin/../lib/gcc/arm-eabi/4.1.1/../../../../arm-eabi/lib/thumb\libg.a(lib_a-strcat.o)
                0x0202ba5c                strcat
 .text          0x0202bab4       0x7c c:/devkitpro/devkitarm/bin/../lib/gcc/arm-eabi/4.1.1/../../../../arm-eabi/lib/thumb\libg.a(lib_a-strchr.o)
                0x0202bab4                strchr
 .text          0x0202bb30       0x68 c:/devkitpro/devkitarm/bin/../lib/gcc/arm-eabi/4.1.1/../../../../arm-eabi/lib/thumb\libg.a(lib_a-strcmp.o)
                0x0202bb30                strcmp
 .text          0x0202bb98       0x50 c:/devkitpro/devkitarm/bin/../lib/gcc/arm-eabi/4.1.1/../../../../arm-eabi/lib/thumb\libg.a(lib_a-strcpy.o)
                0x0202bb98                strcpy
 .text          0x0202bbe8       0x18 c:/devkitpro/devkitarm/bin/../lib/gcc/arm-eabi/4.1.1/../../../../arm-eabi/lib/thumb\libg.a(lib_a-strdup.o)
                0x0202bbe8                strdup
 .text          0x0202bc00       0x2c c:/devkitpro/devkitarm/bin/../lib/gcc/arm-eabi/4.1.1/../../../../arm-eabi/lib/thumb\libg.a(lib_a-strdup_r.o)
                0x0202bc00                _strdup_r
 .text          0x0202bc2c       0x50 c:/devkitpro/devkitarm/bin/../lib/gcc/arm-eabi/4.1.1/../../../../arm-eabi/lib/thumb\libg.a(lib_a-strlen.o)
                0x0202bc2c                strlen
 .text          0x0202bc7c       0xbc c:/devkitpro/devkitarm/bin/../lib/gcc/arm-eabi/4.1.1/../../../../arm-eabi/lib/thumb\libg.a(lib_a-strncasecmp.o)
                0x0202bc7c                strncasecmp
 .text          0x0202bd38       0x94 c:/devkitpro/devkitarm/bin/../lib/gcc/arm-eabi/4.1.1/../../../../arm-eabi/lib/thumb\libg.a(lib_a-strncmp.o)
                0x0202bd38                strncmp
 .text          0x0202bdcc       0x6c c:/devkitpro/devkitarm/bin/../lib/gcc/arm-eabi/4.1.1/../../../../arm-eabi/lib/thumb\libg.a(lib_a-strncpy.o)
                0x0202bdcc                strncpy
 .text          0x0202be38       0x28 c:/devkitpro/devkitarm/bin/../lib/gcc/arm-eabi/4.1.1/../../../../arm-eabi/lib/thumb\libg.a(lib_a-strnlen.o)
                0x0202be38                strnlen
 .text          0x0202be60       0x2c c:/devkitpro/devkitarm/bin/../lib/gcc/arm-eabi/4.1.1/../../../../arm-eabi/lib/thumb\libg.a(lib_a-strpbrk.o)
                0x0202be60                strpbrk
 .text          0x0202be8c       0x34 c:/devkitpro/devkitarm/bin/../lib/gcc/arm-eabi/4.1.1/../../../../arm-eabi/lib/thumb\libg.a(lib_a-strrchr.o)
                0x0202be8c                strrchr
 .text          0x0202bec0       0x34 c:/devkitpro/devkitarm/bin/../lib/gcc/arm-eabi/4.1.1/../../../../arm-eabi/lib/thumb\libg.a(lib_a-strupr.o)
                0x0202bec0                strupr
 .text          0x0202bef4       0x10 c:/devkitpro/devkitarm/bin/../lib/gcc/arm-eabi/4.1.1/../../../../arm-eabi/lib/thumb\libg.a(lib_a-sysclose.o)
                0x0202bef4                close
 .text          0x0202bf04       0x10 c:/devkitpro/devkitarm/bin/../lib/gcc/arm-eabi/4.1.1/../../../../arm-eabi/lib/thumb\libg.a(lib_a-sysfstat.o)
                0x0202bf04                fstat
 .text          0x0202bf14       0x10 c:/devkitpro/devkitarm/bin/../lib/gcc/arm-eabi/4.1.1/../../../../arm-eabi/lib/thumb\libg.a(lib_a-syslseek.o)
                0x0202bf14                lseek
 .text          0x0202bf24       0x1c c:/devkitpro/devkitarm/bin/../lib/gcc/arm-eabi/4.1.1/../../../../arm-eabi/lib/thumb\libg.a(lib_a-sysopen.o)
                0x0202bf24                open
 .text          0x0202bf40       0x10 c:/devkitpro/devkitarm/bin/../lib/gcc/arm-eabi/4.1.1/../../../../arm-eabi/lib/thumb\libg.a(lib_a-sysread.o)
                0x0202bf40                read
 .text          0x0202bf50       0x10 c:/devkitpro/devkitarm/bin/../lib/gcc/arm-eabi/4.1.1/../../../../arm-eabi/lib/thumb\libg.a(lib_a-syswrite.o)
                0x0202bf50                write
 .text          0x0202bf60      0x270 c:/devkitpro/devkitarm/bin/../lib/gcc/arm-eabi/4.1.1/../../../../arm-eabi/lib/thumb\libg.a(lib_a-freer.o)
                0x0202c004                _free_r
                0x0202bf60                _malloc_trim_r
 .text          0x0202c1d0        0x0 c:/devkitpro/devkitarm/bin/../lib/gcc/arm-eabi/4.1.1/../../../../arm-eabi/lib/thumb\libg.a(lib_a-impure.o)
 .text          0x0202c1d0      0x118 c:/devkitpro/devkitarm/bin/../lib/gcc/arm-eabi/4.1.1/../../../../arm-eabi/lib/thumb\libg.a(lib_a-reent.o)
                0x0202c220                cleanup_glue
                0x0202c244                _reclaim_reent
                0x0202c1d0                _wrapup_reent
 .text          0x0202c2e8      0x120 c:/devkitpro/devkitarm/bin/../lib/gcc/arm-eabi/4.1.1/../../../../arm-eabi/lib/thumb\libsysbase.a(iosupport.o)
                0x0202c3dc                RemoveDevice
                0x0202c2e8                setDefaultDevice
                0x0202c2fc                AddDevice
                0x0202c374                FindDevice
 .text          0x0202c408       0x4c c:/devkitpro/devkitarm/bin/../lib/gcc/arm-eabi/4.1.1/../../../../arm-eabi/lib/thumb\libsysbase.a(close.o)
                0x0202c408                _close
 .text          0x0202c454       0x50 c:/devkitpro/devkitarm/bin/../lib/gcc/arm-eabi/4.1.1/../../../../arm-eabi/lib/thumb\libsysbase.a(fstat.o)
                0x0202c454                _fstat
 .text          0x0202c4a4       0x38 c:/devkitpro/devkitarm/bin/../lib/gcc/arm-eabi/4.1.1/../../../../arm-eabi/lib/thumb\libsysbase.a(lseek.o)
                0x0202c4a4                _lseek
 .text          0x0202c4dc       0xa0 c:/devkitpro/devkitarm/bin/../lib/gcc/arm-eabi/4.1.1/../../../../arm-eabi/lib/thumb\libsysbase.a(open.o)
                0x0202c4dc                _open
 .text          0x0202c57c       0x54 c:/devkitpro/devkitarm/bin/../lib/gcc/arm-eabi/4.1.1/../../../../arm-eabi/lib/thumb\libsysbase.a(read.o)
                0x0202c57c                _read
 .text          0x0202c5d0       0x64 c:/devkitpro/devkitarm/bin/../lib/gcc/arm-eabi/4.1.1/../../../../arm-eabi/lib/thumb\libsysbase.a(sbrk.o)
                0x0202c5d0                _sbrk
 .text          0x0202c634       0x54 c:/devkitpro/devkitarm/bin/../lib/gcc/arm-eabi/4.1.1/../../../../arm-eabi/lib/thumb\libsysbase.a(write.o)
                0x0202c634                _write
 .text          0x0202c688        0x0 c:/devkitpro/devkitarm/bin/../lib/gcc/arm-eabi/4.1.1/../../../../arm-eabi/lib/thumb\libsysbase.a(malloc_vars.o)
 .text          0x0202c688      0x270 c:/devkitpro/devkitarm/bin/../lib/gcc/arm-eabi/4.1.1/../../../../arm-eabi/lib/thumb\libsysbase.a(chdir.o)
                0x0202c7fc                chdir
                0x0202c688                getcwd
                0x0202c6d8                _concatenate_path
 .text          0x0202c8f8      0x154 c:/devkitpro/devkitarm/bin/../lib/gcc/arm-eabi/4.1.1/../../../../arm-eabi/lib/thumb\libsysbase.a(dir.o)
                0x0202c8f8                dirreset
                0x0202c930                dirnext
                0x0202c9c0                diropen
                0x0202c974                dirclose
 .text          0x0202ca4c        0x0 c:/devkitpro/devkitarm/bin/../lib/gcc/arm-eabi/4.1.1/thumb/crtend.o
 .text          0x0202ca4c        0x0 c:/devkitpro/devkitarm/bin/../lib/gcc/arm-eabi/4.1.1/thumb/crtn.o
 *(.text.*)
 *(.stub)
 *(.gnu.warning)
 *(.gnu.linkonce.t*)
 *(.glue_7)
 .glue_7        0x0202ca4c        0x0 c:/devkitpro/devkitarm/bin/../lib/gcc/arm-eabi/4.1.1/../../../../arm-eabi/lib/thumb/ds_arm9_crt0.o
 .glue_7        0x0202ca4c        0x0 c:/devkitpro/devkitarm/bin/../lib/gcc/arm-eabi/4.1.1/thumb/crti.o
 .glue_7        0x0202ca4c        0x0 c:/devkitpro/devkitarm/bin/../lib/gcc/arm-eabi/4.1.1/thumb/crtbegin.o
 .glue_7        0x0202ca4c        0x0 gui.bin.o
 .glue_7        0x0202ca4c        0x0 Disa.o
 .glue_7        0x0202ca4c        0x0 EmuSystem.o
 .glue_7        0x0202ca4c        0x0 guiBase.o
 .glue_7        0x0202ca4c        0x0 guiButton.o
 .glue_7        0x0202ca4c        0x0 guiCheckbox.o
 .glue_7        0x0202ca4c        0x0 guiConsole.o
 .glue_7        0x0202ca4c        0x0 guiLabel.o
 .glue_7        0x0202ca4c        0x0 guiMenu.o
 .glue_7        0x0202ca4c        0x0 guiObject.o
 .glue_7        0x0202ca4c        0x0 guiRadioButton.o
 .glue_7        0x0202ca4c        0x0 guiRender.o
 .glue_7        0x0202ca4c        0x0 guiStatus.o
 .glue_7        0x0202ca4c        0x0 LayoutDebug.o
 .glue_7        0x0202ca4c        0x0 LayoutInput.o
 .glue_7        0x0202ca4c        0x0 LayoutMain.o
 .glue_7        0x0202ca4c        0x0 LayoutRomSelect.o
 .glue_7        0x0202ca4c        0x0 LinearHeap.o
 .glue_7        0x0202ca4c        0x0 NeoAudioStream.arm.o
 .glue_7        0x0202ca4c        0x0 NeoConfig.o
 .glue_7        0x0202ca4c        0x0 NeoCpu.o
 .glue_7        0x0202ca4c        0x0 NeoIO.o
 .glue_7        0x0202ca4c        0x0 NeoMemory.o
 .glue_7        0x0202ca4c        0x0 NeoProfiler.o
 .glue_7        0x0202ca4c        0x0 NeoProtection.o
 .glue_7        0x0202ca4c        0x0 NeoSystem.o
 .glue_7        0x0202ca4c        0x0 NeoVideo.o
 .glue_7        0x0202ca4c        0x0 NeoVideoFixed.arm.o
 .glue_7        0x0202ca4c        0x0 NeoVideoPalette.arm.o
 .glue_7        0x0202ca4c        0x0 NeoVideoSprites.arm.o
 .glue_7        0x0202ca4c        0x0 pd4990a.o
 .glue_7        0x0202ca4c        0x0 ram.o
 .glue_7        0x0202ca4c        0x0 Sprintf.o
 .glue_7        0x0202ca4c        0x0 template.o
 .glue_7        0x0202ca4c        0x0 cache.o
 .glue_7        0x0202ca4c        0x0 directory.o
 .glue_7        0x0202ca4c        0x0 fatdir.o
 .glue_7        0x0202ca4c        0x0 fatfile.o
 .glue_7        0x0202ca4c        0x0 file_allocation_table.o
 .glue_7        0x0202ca4c        0x0 filetime.o
 .glue_7        0x0202ca4c        0x0 libfat.o
 .glue_7        0x0202ca4c        0x0 partition.o
 .glue_7        0x0202ca4c        0x0 disc.o
 .glue_7        0x0202ca4c        0x0 io_cf_common.o
 .glue_7        0x0202ca4c        0x0 io_efa2.o
 .glue_7        0x0202ca4c        0x0 io_fcsr.o
 .glue_7        0x0202ca4c        0x0 io_m3_common.o
 .glue_7        0x0202ca4c        0x0 io_m3cf.o
 .glue_7        0x0202ca4c        0x0 io_m3sd.o
 .glue_7        0x0202ca4c        0x0 io_mpcf.o
 .glue_7        0x0202ca4c        0x0 io_njsd.o
 .glue_7        0x0202ca4c        0x0 io_nmmc.o
 .glue_7        0x0202ca4c        0x0 io_sc_common.o
 .glue_7        0x0202ca4c        0x0 io_sccf.o
 .glue_7        0x0202ca4c        0x0 io_scsd.o
 .glue_7        0x0202ca4c        0x0 io_sd_common.o
 .glue_7        0x0202ca4c        0x0 NeoIPC.o
 .glue_7        0x0202ca4c        0x0 Cyclone.o
 .glue_7        0x0202ca4c        0x0 NeoAudioStreamAsm.o
 .glue_7        0x0202ca4c        0x0 NeoCpuAsm.o
 .glue_7        0x0202ca4c        0x0 NeoIOAsm.o
 .glue_7        0x0202ca4c        0x0 NeoMemoryAsm.o
 .glue_7        0x0202ca4c        0x0 NeoVideoAsm.o
 .glue_7        0x0202ca4c        0x0 io_dldi.o
 .glue_7        0x0202ca4c        0x0 io_scsd_s.o
 .glue_7        0x0202ca4c        0x0 C:/devkitPro/libnds/lib\libnds9.a(keys.o)
 .glue_7        0x0202ca4c        0x0 C:/devkitPro/libnds/lib\libnds9.a(touch.o)
 .glue_7        0x0202ca4c        0x0 C:/devkitPro/libnds/lib\libnds9.a(video.o)
 .glue_7        0x0202ca4c        0x0 C:/devkitPro/libnds/lib\libnds9.a(card.o)
 .glue_7        0x0202ca4c        0x0 C:/devkitPro/libnds/lib\libnds9.a(interrupts.o)
 .glue_7        0x0202ca4c        0x0 C:/devkitPro/libnds/lib\libnds9.a(dcache.o)
 .glue_7        0x0202ca4c        0x0 C:/devkitPro/libnds/lib\libnds9.a(biosCalls.o)
 .glue_7        0x0202ca4c        0x0 C:/devkitPro/libnds/lib\libnds9.a(interruptDispatcher.o)
 .glue_7        0x0202ca4c        0x0 c:/devkitpro/devkitarm/bin/../lib/gcc/arm-eabi/4.1.1/thumb\libgcc.a(_udivsi3.o)
 .glue_7        0x0202ca4c        0x0 c:/devkitpro/devkitarm/bin/../lib/gcc/arm-eabi/4.1.1/thumb\libgcc.a(_divsi3.o)
 .glue_7        0x0202ca4c        0x0 c:/devkitpro/devkitarm/bin/../lib/gcc/arm-eabi/4.1.1/thumb\libgcc.a(_dvmd_tls.o)
 .glue_7        0x0202ca4c        0x0 c:/devkitpro/devkitarm/bin/../lib/gcc/arm-eabi/4.1.1/thumb\libgcc.a(_call_via_rX.o)
 .glue_7        0x0202ca4c        0x0 c:/devkitpro/devkitarm/bin/../lib/gcc/arm-eabi/4.1.1/../../../../arm-eabi/lib/thumb\libg.a(lib_a-ctype_.o)
 .glue_7        0x0202ca4c        0x0 c:/devkitpro/devkitarm/bin/../lib/gcc/arm-eabi/4.1.1/../../../../arm-eabi/lib/thumb\libg.a(lib_a-init.o)
 .glue_7        0x0202ca4c        0x0 c:/devkitpro/devkitarm/bin/../lib/gcc/arm-eabi/4.1.1/../../../../arm-eabi/lib/thumb\libg.a(lib_a-malloc.o)
 .glue_7        0x0202ca4c        0x0 c:/devkitpro/devkitarm/bin/../lib/gcc/arm-eabi/4.1.1/../../../../arm-eabi/lib/thumb\libg.a(lib_a-mallocr.o)
 .glue_7        0x0202ca4c        0x0 c:/devkitpro/devkitarm/bin/../lib/gcc/arm-eabi/4.1.1/../../../../arm-eabi/lib/thumb\libg.a(lib_a-memcpy.o)
 .glue_7        0x0202ca4c        0x0 c:/devkitpro/devkitarm/bin/../lib/gcc/arm-eabi/4.1.1/../../../../arm-eabi/lib/thumb\libg.a(lib_a-memmove.o)
 .glue_7        0x0202ca4c        0x0 c:/devkitpro/devkitarm/bin/../lib/gcc/arm-eabi/4.1.1/../../../../arm-eabi/lib/thumb\libg.a(lib_a-memset.o)
 .glue_7        0x0202ca4c        0x0 c:/devkitpro/devkitarm/bin/../lib/gcc/arm-eabi/4.1.1/../../../../arm-eabi/lib/thumb\libg.a(lib_a-mlock.o)
 .glue_7        0x0202ca4c        0x0 c:/devkitpro/devkitarm/bin/../lib/gcc/arm-eabi/4.1.1/../../../../arm-eabi/lib/thumb\libg.a(lib_a-qsort.o)
 .glue_7        0x0202ca4c        0x0 c:/devkitpro/devkitarm/bin/../lib/gcc/arm-eabi/4.1.1/../../../../arm-eabi/lib/thumb\libg.a(lib_a-realloc.o)
 .glue_7        0x0202ca4c        0x0 c:/devkitpro/devkitarm/bin/../lib/gcc/arm-eabi/4.1.1/../../../../arm-eabi/lib/thumb\libg.a(lib_a-reallocr.o)
 .glue_7        0x0202ca4c        0x0 c:/devkitpro/devkitarm/bin/../lib/gcc/arm-eabi/4.1.1/../../../../arm-eabi/lib/thumb\libg.a(lib_a-sbrkr.o)
 .glue_7        0x0202ca4c        0x0 c:/devkitpro/devkitarm/bin/../lib/gcc/arm-eabi/4.1.1/../../../../arm-eabi/lib/thumb\libg.a(lib_a-strcasecmp.o)
 .glue_7        0x0202ca4c        0x0 c:/devkitpro/devkitarm/bin/../lib/gcc/arm-eabi/4.1.1/../../../../arm-eabi/lib/thumb\libg.a(lib_a-strcat.o)
 .glue_7        0x0202ca4c        0x0 c:/devkitpro/devkitarm/bin/../lib/gcc/arm-eabi/4.1.1/../../../../arm-eabi/lib/thumb\libg.a(lib_a-strchr.o)
 .glue_7        0x0202ca4c        0x0 c:/devkitpro/devkitarm/bin/../lib/gcc/arm-eabi/4.1.1/../../../../arm-eabi/lib/thumb\libg.a(lib_a-strcmp.o)
 .glue_7        0x0202ca4c        0x0 c:/devkitpro/devkitarm/bin/../lib/gcc/arm-eabi/4.1.1/../../../../arm-eabi/lib/thumb\libg.a(lib_a-strcpy.o)
 .glue_7        0x0202ca4c        0x0 c:/devkitpro/devkitarm/bin/../lib/gcc/arm-eabi/4.1.1/../../../../arm-eabi/lib/thumb\libg.a(lib_a-strdup.o)
 .glue_7        0x0202ca4c        0x0 c:/devkitpro/devkitarm/bin/../lib/gcc/arm-eabi/4.1.1/../../../../arm-eabi/lib/thumb\libg.a(lib_a-strdup_r.o)
 .glue_7        0x0202ca4c        0x0 c:/devkitpro/devkitarm/bin/../lib/gcc/arm-eabi/4.1.1/../../../../arm-eabi/lib/thumb\libg.a(lib_a-strlen.o)
 .glue_7        0x0202ca4c        0x0 c:/devkitpro/devkitarm/bin/../lib/gcc/arm-eabi/4.1.1/../../../../arm-eabi/lib/thumb\libg.a(lib_a-strncasecmp.o)
 .glue_7        0x0202ca4c        0x0 c:/devkitpro/devkitarm/bin/../lib/gcc/arm-eabi/4.1.1/../../../../arm-eabi/lib/thumb\libg.a(lib_a-strncmp.o)
 .glue_7        0x0202ca4c        0x0 c:/devkitpro/devkitarm/bin/../lib/gcc/arm-eabi/4.1.1/../../../../arm-eabi/lib/thumb\libg.a(lib_a-strncpy.o)
 .glue_7        0x0202ca4c        0x0 c:/devkitpro/devkitarm/bin/../lib/gcc/arm-eabi/4.1.1/../../../../arm-eabi/lib/thumb\libg.a(lib_a-strnlen.o)
 .glue_7        0x0202ca4c        0x0 c:/devkitpro/devkitarm/bin/../lib/gcc/arm-eabi/4.1.1/../../../../arm-eabi/lib/thumb\libg.a(lib_a-strpbrk.o)
 .glue_7        0x0202ca4c        0x0 c:/devkitpro/devkitarm/bin/../lib/gcc/arm-eabi/4.1.1/../../../../arm-eabi/lib/thumb\libg.a(lib_a-strrchr.o)
 .glue_7        0x0202ca4c        0x0 c:/devkitpro/devkitarm/bin/../lib/gcc/arm-eabi/4.1.1/../../../../arm-eabi/lib/thumb\libg.a(lib_a-strupr.o)
 .glue_7        0x0202ca4c        0x0 c:/devkitpro/devkitarm/bin/../lib/gcc/arm-eabi/4.1.1/../../../../arm-eabi/lib/thumb\libg.a(lib_a-sysclose.o)
 .glue_7        0x0202ca4c        0x0 c:/devkitpro/devkitarm/bin/../lib/gcc/arm-eabi/4.1.1/../../../../arm-eabi/lib/thumb\libg.a(lib_a-sysfstat.o)
 .glue_7        0x0202ca4c        0x0 c:/devkitpro/devkitarm/bin/../lib/gcc/arm-eabi/4.1.1/../../../../arm-eabi/lib/thumb\libg.a(lib_a-syslseek.o)
 .glue_7        0x0202ca4c        0x0 c:/devkitpro/devkitarm/bin/../lib/gcc/arm-eabi/4.1.1/../../../../arm-eabi/lib/thumb\libg.a(lib_a-sysopen.o)
 .glue_7        0x0202ca4c        0x0 c:/devkitpro/devkitarm/bin/../lib/gcc/arm-eabi/4.1.1/../../../../arm-eabi/lib/thumb\libg.a(lib_a-sysread.o)
 .glue_7        0x0202ca4c        0x0 c:/devkitpro/devkitarm/bin/../lib/gcc/arm-eabi/4.1.1/../../../../arm-eabi/lib/thumb\libg.a(lib_a-syswrite.o)
 .glue_7        0x0202ca4c        0x0 c:/devkitpro/devkitarm/bin/../lib/gcc/arm-eabi/4.1.1/../../../../arm-eabi/lib/thumb\libg.a(lib_a-freer.o)
 .glue_7        0x0202ca4c        0x0 c:/devkitpro/devkitarm/bin/../lib/gcc/arm-eabi/4.1.1/../../../../arm-eabi/lib/thumb\libg.a(lib_a-impure.o)
 .glue_7        0x0202ca4c        0x0 c:/devkitpro/devkitarm/bin/../lib/gcc/arm-eabi/4.1.1/../../../../arm-eabi/lib/thumb\libg.a(lib_a-reent.o)
 .glue_7        0x0202ca4c        0x0 c:/devkitpro/devkitarm/bin/../lib/gcc/arm-eabi/4.1.1/../../../../arm-eabi/lib/thumb\libsysbase.a(iosupport.o)
 .glue_7        0x0202ca4c        0x0 c:/devkitpro/devkitarm/bin/../lib/gcc/arm-eabi/4.1.1/../../../../arm-eabi/lib/thumb\libsysbase.a(close.o)
 .glue_7        0x0202ca4c        0x0 c:/devkitpro/devkitarm/bin/../lib/gcc/arm-eabi/4.1.1/../../../../arm-eabi/lib/thumb\libsysbase.a(fstat.o)
 .glue_7        0x0202ca4c        0x0 c:/devkitpro/devkitarm/bin/../lib/gcc/arm-eabi/4.1.1/../../../../arm-eabi/lib/thumb\libsysbase.a(lseek.o)
 .glue_7        0x0202ca4c        0x0 c:/devkitpro/devkitarm/bin/../lib/gcc/arm-eabi/4.1.1/../../../../arm-eabi/lib/thumb\libsysbase.a(open.o)
 .glue_7        0x0202ca4c        0x0 c:/devkitpro/devkitarm/bin/../lib/gcc/arm-eabi/4.1.1/../../../../arm-eabi/lib/thumb\libsysbase.a(read.o)
 .glue_7        0x0202ca4c        0x0 c:/devkitpro/devkitarm/bin/../lib/gcc/arm-eabi/4.1.1/../../../../arm-eabi/lib/thumb\libsysbase.a(sbrk.o)
 .glue_7        0x0202ca4c        0x0 c:/devkitpro/devkitarm/bin/../lib/gcc/arm-eabi/4.1.1/../../../../arm-eabi/lib/thumb\libsysbase.a(write.o)
 .glue_7        0x0202ca4c        0x0 c:/devkitpro/devkitarm/bin/../lib/gcc/arm-eabi/4.1.1/../../../../arm-eabi/lib/thumb\libsysbase.a(malloc_vars.o)
 .glue_7        0x0202ca4c        0x0 c:/devkitpro/devkitarm/bin/../lib/gcc/arm-eabi/4.1.1/../../../../arm-eabi/lib/thumb\libsysbase.a(chdir.o)
 .glue_7        0x0202ca4c        0x0 c:/devkitpro/devkitarm/bin/../lib/gcc/arm-eabi/4.1.1/../../../../arm-eabi/lib/thumb\libsysbase.a(dir.o)
 .glue_7        0x0202ca4c      0x12c c:/devkitpro/devkitarm/bin/../lib/gcc/arm-eabi/4.1.1/thumb/crtend.o
                0x0202cad0                __vramSetMainBanks_from_arm
                0x0202ca88                ____aeabi_idiv_from_arm
                0x0202cae8                __systemSlot2Unlock_from_arm
                0x0202cadc                __vramRestoreMainBanks_from_arm
                0x0202cac4                __vramSetBankF_from_arm
                0x0202caa0                __neoSystemLoadTile_from_arm
                0x0202cb48                __systemGetSlot2Free_from_arm
                0x0202ca70                __neoSystemVramHAlloc_from_arm
                0x0202cb30                __vramSetBankC_from_arm
                0x0202ca58                __neoSystemReadRegion_from_arm
                0x0202ca4c                ___call_via_r3_from_arm
                0x0202cb24                __vramSetBankB_from_arm
                0x0202caac                __memcpy_from_arm
                0x0202cb18                __vramSetBankA_from_arm
                0x0202caf4                __systemSlot2Lock_from_arm
                0x0202cb60                __systemRamAlloc_from_arm
                0x0202ca64                __memset_from_arm
                0x0202ca94                ____aeabi_idivmod_from_arm
                0x0202cab8                __vramSetBankG_from_arm
                0x0202cb6c                __neoSystemIrqAk_from_arm
                0x0202cb00                __neoSystemLoadSprite2_from_arm
                0x0202cb3c                __vramSetBankD_from_arm
                0x0202ca7c                __neoSystemLoadRegion_from_arm
                0x0202cb0c                __neoSystemLoadSprite_from_arm
                0x0202cb54                __systemSlot2Alloc_from_arm
 .glue_7        0x0202cb78        0x0 c:/devkitpro/devkitarm/bin/../lib/gcc/arm-eabi/4.1.1/thumb/crtn.o
 *(.glue_7t)
 .glue_7t       0x0202cb78        0x0 c:/devkitpro/devkitarm/bin/../lib/gcc/arm-eabi/4.1.1/../../../../arm-eabi/lib/thumb/ds_arm9_crt0.o
 .glue_7t       0x0202cb78        0x0 c:/devkitpro/devkitarm/bin/../lib/gcc/arm-eabi/4.1.1/thumb/crti.o
 .glue_7t       0x0202cb78        0x0 c:/devkitpro/devkitarm/bin/../lib/gcc/arm-eabi/4.1.1/thumb/crtbegin.o
 .glue_7t       0x0202cb78        0x0 gui.bin.o
 .glue_7t       0x0202cb78        0x0 Disa.o
 .glue_7t       0x0202cb78        0x0 EmuSystem.o
 .glue_7t       0x0202cb78        0x0 guiBase.o
 .glue_7t       0x0202cb78        0x0 guiButton.o
 .glue_7t       0x0202cb78        0x0 guiCheckbox.o
 .glue_7t       0x0202cb78        0x0 guiConsole.o
 .glue_7t       0x0202cb78        0x0 guiLabel.o
 .glue_7t       0x0202cb78        0x0 guiMenu.o
 .glue_7t       0x0202cb78        0x0 guiObject.o
 .glue_7t       0x0202cb78        0x0 guiRadioButton.o
 .glue_7t       0x0202cb78        0x0 guiRender.o
 .glue_7t       0x0202cb78        0x0 guiStatus.o
 .glue_7t       0x0202cb78        0x0 LayoutDebug.o
 .glue_7t       0x0202cb78        0x0 LayoutInput.o
 .glue_7t       0x0202cb78        0x0 LayoutMain.o
 .glue_7t       0x0202cb78        0x0 LayoutRomSelect.o
 .glue_7t       0x0202cb78        0x0 LinearHeap.o
 .glue_7t       0x0202cb78        0x0 NeoAudioStream.arm.o
 .glue_7t       0x0202cb78        0x0 NeoConfig.o
 .glue_7t       0x0202cb78        0x0 NeoCpu.o
 .glue_7t       0x0202cb78        0x0 NeoIO.o
 .glue_7t       0x0202cb78        0x0 NeoMemory.o
 .glue_7t       0x0202cb78        0x0 NeoProfiler.o
 .glue_7t       0x0202cb78        0x0 NeoProtection.o
 .glue_7t       0x0202cb78        0x0 NeoSystem.o
 .glue_7t       0x0202cb78        0x0 NeoVideo.o
 .glue_7t       0x0202cb78        0x0 NeoVideoFixed.arm.o
 .glue_7t       0x0202cb78        0x0 NeoVideoPalette.arm.o
 .glue_7t       0x0202cb78        0x0 NeoVideoSprites.arm.o
 .glue_7t       0x0202cb78        0x0 pd4990a.o
 .glue_7t       0x0202cb78        0x0 ram.o
 .glue_7t       0x0202cb78        0x0 Sprintf.o
 .glue_7t       0x0202cb78        0x0 template.o
 .glue_7t       0x0202cb78        0x0 cache.o
 .glue_7t       0x0202cb78        0x0 directory.o
 .glue_7t       0x0202cb78        0x0 fatdir.o
 .glue_7t       0x0202cb78        0x0 fatfile.o
 .glue_7t       0x0202cb78        0x0 file_allocation_table.o
 .glue_7t       0x0202cb78        0x0 filetime.o
 .glue_7t       0x0202cb78        0x0 libfat.o
 .glue_7t       0x0202cb78        0x0 partition.o
 .glue_7t       0x0202cb78        0x0 disc.o
 .glue_7t       0x0202cb78        0x0 io_cf_common.o
 .glue_7t       0x0202cb78        0x0 io_efa2.o
 .glue_7t       0x0202cb78        0x0 io_fcsr.o
 .glue_7t       0x0202cb78        0x0 io_m3_common.o
 .glue_7t       0x0202cb78        0x0 io_m3cf.o
 .glue_7t       0x0202cb78        0x0 io_m3sd.o
 .glue_7t       0x0202cb78        0x0 io_mpcf.o
 .glue_7t       0x0202cb78        0x0 io_njsd.o
 .glue_7t       0x0202cb78        0x0 io_nmmc.o
 .glue_7t       0x0202cb78        0x0 io_sc_common.o
 .glue_7t       0x0202cb78        0x0 io_sccf.o
 .glue_7t       0x0202cb78        0x0 io_scsd.o
 .glue_7t       0x0202cb78        0x0 io_sd_common.o
 .glue_7t       0x0202cb78        0x0 NeoIPC.o
 .glue_7t       0x0202cb78        0x0 Cyclone.o
 .glue_7t       0x0202cb78        0x0 NeoAudioStreamAsm.o
 .glue_7t       0x0202cb78        0x0 NeoCpuAsm.o
 .glue_7t       0x0202cb78        0x0 NeoIOAsm.o
 .glue_7t       0x0202cb78        0x0 NeoMemoryAsm.o
 .glue_7t       0x0202cb78        0x0 NeoVideoAsm.o
 .glue_7t       0x0202cb78        0x0 io_dldi.o
 .glue_7t       0x0202cb78        0x0 io_scsd_s.o
 .glue_7t       0x0202cb78        0x0 C:/devkitPro/libnds/lib\libnds9.a(keys.o)
 .glue_7t       0x0202cb78        0x0 C:/devkitPro/libnds/lib\libnds9.a(touch.o)
 .glue_7t       0x0202cb78        0x0 C:/devkitPro/libnds/lib\libnds9.a(video.o)
 .glue_7t       0x0202cb78        0x0 C:/devkitPro/libnds/lib\libnds9.a(card.o)
 .glue_7t       0x0202cb78        0x0 C:/devkitPro/libnds/lib\libnds9.a(interrupts.o)
 .glue_7t       0x0202cb78        0x0 C:/devkitPro/libnds/lib\libnds9.a(dcache.o)
 .glue_7t       0x0202cb78        0x0 C:/devkitPro/libnds/lib\libnds9.a(biosCalls.o)
 .glue_7t       0x0202cb78        0x0 C:/devkitPro/libnds/lib\libnds9.a(interruptDispatcher.o)
 .glue_7t       0x0202cb78        0x0 c:/devkitpro/devkitarm/bin/../lib/gcc/arm-eabi/4.1.1/thumb\libgcc.a(_udivsi3.o)
 .glue_7t       0x0202cb78        0x0 c:/devkitpro/devkitarm/bin/../lib/gcc/arm-eabi/4.1.1/thumb\libgcc.a(_divsi3.o)
 .glue_7t       0x0202cb78        0x0 c:/devkitpro/devkitarm/bin/../lib/gcc/arm-eabi/4.1.1/thumb\libgcc.a(_dvmd_tls.o)
 .glue_7t       0x0202cb78        0x0 c:/devkitpro/devkitarm/bin/../lib/gcc/arm-eabi/4.1.1/thumb\libgcc.a(_call_via_rX.o)
 .glue_7t       0x0202cb78        0x0 c:/devkitpro/devkitarm/bin/../lib/gcc/arm-eabi/4.1.1/../../../../arm-eabi/lib/thumb\libg.a(lib_a-ctype_.o)
 .glue_7t       0x0202cb78        0x0 c:/devkitpro/devkitarm/bin/../lib/gcc/arm-eabi/4.1.1/../../../../arm-eabi/lib/thumb\libg.a(lib_a-init.o)
 .glue_7t       0x0202cb78        0x0 c:/devkitpro/devkitarm/bin/../lib/gcc/arm-eabi/4.1.1/../../../../arm-eabi/lib/thumb\libg.a(lib_a-malloc.o)
 .glue_7t       0x0202cb78        0x0 c:/devkitpro/devkitarm/bin/../lib/gcc/arm-eabi/4.1.1/../../../../arm-eabi/lib/thumb\libg.a(lib_a-mallocr.o)
 .glue_7t       0x0202cb78        0x0 c:/devkitpro/devkitarm/bin/../lib/gcc/arm-eabi/4.1.1/../../../../arm-eabi/lib/thumb\libg.a(lib_a-memcpy.o)
 .glue_7t       0x0202cb78        0x0 c:/devkitpro/devkitarm/bin/../lib/gcc/arm-eabi/4.1.1/../../../../arm-eabi/lib/thumb\libg.a(lib_a-memmove.o)
 .glue_7t       0x0202cb78        0x0 c:/devkitpro/devkitarm/bin/../lib/gcc/arm-eabi/4.1.1/../../../../arm-eabi/lib/thumb\libg.a(lib_a-memset.o)
 .glue_7t       0x0202cb78        0x0 c:/devkitpro/devkitarm/bin/../lib/gcc/arm-eabi/4.1.1/../../../../arm-eabi/lib/thumb\libg.a(lib_a-mlock.o)
 .glue_7t       0x0202cb78        0x0 c:/devkitpro/devkitarm/bin/../lib/gcc/arm-eabi/4.1.1/../../../../arm-eabi/lib/thumb\libg.a(lib_a-qsort.o)
 .glue_7t       0x0202cb78        0x0 c:/devkitpro/devkitarm/bin/../lib/gcc/arm-eabi/4.1.1/../../../../arm-eabi/lib/thumb\libg.a(lib_a-realloc.o)
 .glue_7t       0x0202cb78        0x0 c:/devkitpro/devkitarm/bin/../lib/gcc/arm-eabi/4.1.1/../../../../arm-eabi/lib/thumb\libg.a(lib_a-reallocr.o)
 .glue_7t       0x0202cb78        0x0 c:/devkitpro/devkitarm/bin/../lib/gcc/arm-eabi/4.1.1/../../../../arm-eabi/lib/thumb\libg.a(lib_a-sbrkr.o)
 .glue_7t       0x0202cb78        0x0 c:/devkitpro/devkitarm/bin/../lib/gcc/arm-eabi/4.1.1/../../../../arm-eabi/lib/thumb\libg.a(lib_a-strcasecmp.o)
 .glue_7t       0x0202cb78        0x0 c:/devkitpro/devkitarm/bin/../lib/gcc/arm-eabi/4.1.1/../../../../arm-eabi/lib/thumb\libg.a(lib_a-strcat.o)
 .glue_7t       0x0202cb78        0x0 c:/devkitpro/devkitarm/bin/../lib/gcc/arm-eabi/4.1.1/../../../../arm-eabi/lib/thumb\libg.a(lib_a-strchr.o)
 .glue_7t       0x0202cb78        0x0 c:/devkitpro/devkitarm/bin/../lib/gcc/arm-eabi/4.1.1/../../../../arm-eabi/lib/thumb\libg.a(lib_a-strcmp.o)
 .glue_7t       0x0202cb78        0x0 c:/devkitpro/devkitarm/bin/../lib/gcc/arm-eabi/4.1.1/../../../../arm-eabi/lib/thumb\libg.a(lib_a-strcpy.o)
 .glue_7t       0x0202cb78        0x0 c:/devkitpro/devkitarm/bin/../lib/gcc/arm-eabi/4.1.1/../../../../arm-eabi/lib/thumb\libg.a(lib_a-strdup.o)
 .glue_7t       0x0202cb78        0x0 c:/devkitpro/devkitarm/bin/../lib/gcc/arm-eabi/4.1.1/../../../../arm-eabi/lib/thumb\libg.a(lib_a-strdup_r.o)
 .glue_7t       0x0202cb78        0x0 c:/devkitpro/devkitarm/bin/../lib/gcc/arm-eabi/4.1.1/../../../../arm-eabi/lib/thumb\libg.a(lib_a-strlen.o)
 .glue_7t       0x0202cb78        0x0 c:/devkitpro/devkitarm/bin/../lib/gcc/arm-eabi/4.1.1/../../../../arm-eabi/lib/thumb\libg.a(lib_a-strncasecmp.o)
 .glue_7t       0x0202cb78        0x0 c:/devkitpro/devkitarm/bin/../lib/gcc/arm-eabi/4.1.1/../../../../arm-eabi/lib/thumb\libg.a(lib_a-strncmp.o)
 .glue_7t       0x0202cb78        0x0 c:/devkitpro/devkitarm/bin/../lib/gcc/arm-eabi/4.1.1/../../../../arm-eabi/lib/thumb\libg.a(lib_a-strncpy.o)
 .glue_7t       0x0202cb78        0x0 c:/devkitpro/devkitarm/bin/../lib/gcc/arm-eabi/4.1.1/../../../../arm-eabi/lib/thumb\libg.a(lib_a-strnlen.o)
 .glue_7t       0x0202cb78        0x0 c:/devkitpro/devkitarm/bin/../lib/gcc/arm-eabi/4.1.1/../../../../arm-eabi/lib/thumb\libg.a(lib_a-strpbrk.o)
 .glue_7t       0x0202cb78        0x0 c:/devkitpro/devkitarm/bin/../lib/gcc/arm-eabi/4.1.1/../../../../arm-eabi/lib/thumb\libg.a(lib_a-strrchr.o)
 .glue_7t       0x0202cb78        0x0 c:/devkitpro/devkitarm/bin/../lib/gcc/arm-eabi/4.1.1/../../../../arm-eabi/lib/thumb\libg.a(lib_a-strupr.o)
 .glue_7t       0x0202cb78        0x0 c:/devkitpro/devkitarm/bin/../lib/gcc/arm-eabi/4.1.1/../../../../arm-eabi/lib/thumb\libg.a(lib_a-sysclose.o)
 .glue_7t       0x0202cb78        0x0 c:/devkitpro/devkitarm/bin/../lib/gcc/arm-eabi/4.1.1/../../../../arm-eabi/lib/thumb\libg.a(lib_a-sysfstat.o)
 .glue_7t       0x0202cb78        0x0 c:/devkitpro/devkitarm/bin/../lib/gcc/arm-eabi/4.1.1/../../../../arm-eabi/lib/thumb\libg.a(lib_a-syslseek.o)
 .glue_7t       0x0202cb78        0x0 c:/devkitpro/devkitarm/bin/../lib/gcc/arm-eabi/4.1.1/../../../../arm-eabi/lib/thumb\libg.a(lib_a-sysopen.o)
 .glue_7t       0x0202cb78        0x0 c:/devkitpro/devkitarm/bin/../lib/gcc/arm-eabi/4.1.1/../../../../arm-eabi/lib/thumb\libg.a(lib_a-sysread.o)
 .glue_7t       0x0202cb78        0x0 c:/devkitpro/devkitarm/bin/../lib/gcc/arm-eabi/4.1.1/../../../../arm-eabi/lib/thumb\libg.a(lib_a-syswrite.o)
 .glue_7t       0x0202cb78        0x0 c:/devkitpro/devkitarm/bin/../lib/gcc/arm-eabi/4.1.1/../../../../arm-eabi/lib/thumb\libg.a(lib_a-freer.o)
 .glue_7t       0x0202cb78        0x0 c:/devkitpro/devkitarm/bin/../lib/gcc/arm-eabi/4.1.1/../../../../arm-eabi/lib/thumb\libg.a(lib_a-impure.o)
 .glue_7t       0x0202cb78        0x0 c:/devkitpro/devkitarm/bin/../lib/gcc/arm-eabi/4.1.1/../../../../arm-eabi/lib/thumb\libg.a(lib_a-reent.o)
 .glue_7t       0x0202cb78        0x0 c:/devkitpro/devkitarm/bin/../lib/gcc/arm-eabi/4.1.1/../../../../arm-eabi/lib/thumb\libsysbase.a(iosupport.o)
 .glue_7t       0x0202cb78        0x0 c:/devkitpro/devkitarm/bin/../lib/gcc/arm-eabi/4.1.1/../../../../arm-eabi/lib/thumb\libsysbase.a(close.o)
 .glue_7t       0x0202cb78        0x0 c:/devkitpro/devkitarm/bin/../lib/gcc/arm-eabi/4.1.1/../../../../arm-eabi/lib/thumb\libsysbase.a(fstat.o)
 .glue_7t       0x0202cb78        0x0 c:/devkitpro/devkitarm/bin/../lib/gcc/arm-eabi/4.1.1/../../../../arm-eabi/lib/thumb\libsysbase.a(lseek.o)
 .glue_7t       0x0202cb78        0x0 c:/devkitpro/devkitarm/bin/../lib/gcc/arm-eabi/4.1.1/../../../../arm-eabi/lib/thumb\libsysbase.a(open.o)
 .glue_7t       0x0202cb78        0x0 c:/devkitpro/devkitarm/bin/../lib/gcc/arm-eabi/4.1.1/../../../../arm-eabi/lib/thumb\libsysbase.a(read.o)
 .glue_7t       0x0202cb78        0x0 c:/devkitpro/devkitarm/bin/../lib/gcc/arm-eabi/4.1.1/../../../../arm-eabi/lib/thumb\libsysbase.a(sbrk.o)
 .glue_7t       0x0202cb78        0x0 c:/devkitpro/devkitarm/bin/../lib/gcc/arm-eabi/4.1.1/../../../../arm-eabi/lib/thumb\libsysbase.a(write.o)
 .glue_7t       0x0202cb78        0x0 c:/devkitpro/devkitarm/bin/../lib/gcc/arm-eabi/4.1.1/../../../../arm-eabi/lib/thumb\libsysbase.a(malloc_vars.o)
 .glue_7t       0x0202cb78        0x0 c:/devkitpro/devkitarm/bin/../lib/gcc/arm-eabi/4.1.1/../../../../arm-eabi/lib/thumb\libsysbase.a(chdir.o)
 .glue_7t       0x0202cb78        0x0 c:/devkitpro/devkitarm/bin/../lib/gcc/arm-eabi/4.1.1/../../../../arm-eabi/lib/thumb\libsysbase.a(dir.o)
 .glue_7t       0x0202cb78       0xa8 c:/devkitpro/devkitarm/bin/../lib/gcc/arm-eabi/4.1.1/thumb/crtend.o
                0x0202cbe0                __neoLoadPalette_from_thumb
                0x0202cbc4                __neoFixedExit_change_to_arm
                0x0202cbb8                __neoAudioStreamInit_from_thumb
                0x0202cbd4                __neoPaletteExit_change_to_arm
                0x0202cb94                __neoAudioStreamProcess_change_to_arm
                0x0202cc18                ___SCSD_writeData_s_from_thumb
                0x0202cc10                __neoPaletteInit_from_thumb
                0x0202cbb0                __neoIOInit_from_thumb
                0x0202cb7c                __DC_FlushAll_change_to_arm
                0x0202cbac                __neoAudioStreamReset_change_to_arm
                0x0202cb80                __CycloneRun_from_thumb
                0x0202cbf0                __neoUpdatePalette_from_thumb
                0x0202cbec                __neoLoadTiles_change_to_arm
                0x0202cbb4                __neoIOInit_change_to_arm
                0x0202cc14                __neoPaletteInit_change_to_arm
                0x0202cc08                __neoSpriteInit_from_thumb
                0x0202cbfc                __neoDrawSprites_change_to_arm
                0x0202cc04                __neoFixedInit_change_to_arm
                0x0202cb8c                __neoVideoPaletteBank_change_to_arm
                0x0202cb88                __neoVideoPaletteBank_from_thumb
                0x0202cc00                __neoFixedInit_from_thumb
                0x0202cbbc                __neoAudioStreamInit_change_to_arm
                0x0202cb84                __CycloneRun_change_to_arm
                0x0202cbe8                __neoLoadTiles_from_thumb
                0x0202cba8                __neoAudioStreamReset_from_thumb
                0x0202cbe4                __neoLoadPalette_change_to_arm
                0x0202cbf8                __neoDrawSprites_from_thumb
                0x0202cbc0                __neoFixedExit_from_thumb
                0x0202cba4                __neoReadBankedRom8_change_to_arm
                0x0202cbcc                __neoSpriteExit_change_to_arm
                0x0202cb9c                __neoReadBankedRom16_change_to_arm
                0x0202cbd0                __neoPaletteExit_from_thumb
                0x0202cbc8                __neoSpriteExit_from_thumb
                0x0202cc0c                __neoSpriteInit_change_to_arm
                0x0202cc1c                ___SCSD_writeData_s_change_to_arm
                0x0202cbf4                __neoUpdatePalette_change_to_arm
                0x0202cba0                __neoReadBankedRom8_from_thumb
                0x0202cbd8                __neoLoadSprites_from_thumb
                0x0202cb98                __neoReadBankedRom16_from_thumb
                0x0202cb90                __neoAudioStreamProcess_from_thumb
                0x0202cb78                __DC_FlushAll_from_thumb
                0x0202cbdc                __neoLoadSprites_change_to_arm
 .glue_7t       0x0202cc20        0x0 c:/devkitpro/devkitarm/bin/../lib/gcc/arm-eabi/4.1.1/thumb/crtn.o
                0x0202cc20                . = ALIGN (0x4)

.fini           0x0202cc20        0xc
 *(.fini)
 .fini          0x0202cc20        0x4 c:/devkitpro/devkitarm/bin/../lib/gcc/arm-eabi/4.1.1/thumb/crti.o
                0x0202cc20                _fini
 .fini          0x0202cc24        0x8 c:/devkitpro/devkitarm/bin/../lib/gcc/arm-eabi/4.1.1/thumb/crtn.o
                0x0202cc2c                __text_end = .

.rodata         0x0202cc2c     0x33d8
 *(.rodata)
 .rodata        0x0202cc2c     0x2004 gui.bin.o
                0x0202cc30                gui_bin
                0x0202ec30                gui_bin_end
                0x0202cc2c                gui_bin_size
 .rodata        0x0202ec30       0x10 guiBase.o
 .rodata        0x0202ec40       0x2c guiButton.o
                0x0202ec5c                __TGuiButtonTypeHeader__
 .rodata        0x0202ec6c       0x10 guiCheckbox.o
                0x0202ec6c                __TGuiCheckboxTypeHeader__
 .rodata        0x0202ec7c       0x10 guiConsole.o
                0x0202ec7c                __TGuiConsoleTypeHeader__
 .rodata        0x0202ec8c       0x10 guiLabel.o
                0x0202ec8c                __TGuiLabelTypeHeader__
 .rodata        0x0202ec9c       0x10 guiMenu.o
                0x0202ec9c                __TGuiMenuTypeHeader__
 .rodata        0x0202ecac       0x10 guiObject.o
                0x0202ecac                __TGuiObjectTypeHeader__
 .rodata        0x0202ecbc       0x10 guiRadioButton.o
                0x0202ecbc                __TGuiRadioButtonTypeHeader__
 .rodata        0x0202eccc      0x200 guiRender.o
 .rodata        0x0202eecc       0x10 guiStatus.o
                0x0202eecc                __TGuiStatusTypeHeader__
 .rodata        0x0202eedc       0x40 LayoutInput.o
                0x0202eedc                __TGuiLayoutInputTypeHeader__
 .rodata        0x0202ef1c      0x120 LayoutMain.o
                0x0202ef1c                __TGuiLayoutMainTypeHeader__
                0x0202ef2c                __TGuiLayoutScreenOffTypeHeader__
 .rodata        0x0202f03c       0x60 LayoutRomSelect.o
                0x0202f03c                __TGuiLayoutRomSelectTypeHeader__
 .rodata        0x0202f09c       0x82 NeoAudioStream.arm.o
 *fill*         0x0202f11e        0x2 ff
 .rodata        0x0202f120       0x20 NeoIO.o
 .rodata        0x0202f140      0x598 NeoProtection.o
 .rodata        0x0202f6d8       0x20 NeoSystem.o
 .rodata        0x0202f6f8       0x30 NeoVideo.o
 .rodata        0x0202f728       0x20 pd4990a.o
 .rodata        0x0202f748       0x14 ram.o
 .rodata        0x0202f75c       0x1c Sprintf.o
 .rodata        0x0202f778       0x34 directory.o
                0x0202f778                LFN_offset_table
 .rodata        0x0202f7ac       0x4c libfat.o
                0x0202f7ac                dotab_fat
 .rodata        0x0202f7f8       0x20 io_efa2.o
                0x0202f7f8                _io_efa2
 .rodata        0x0202f818       0x2c io_fcsr.o
                0x0202f818                _FCSR_LabelString
                0x0202f824                _io_fcsr
 .rodata        0x0202f844       0x44 io_m3cf.o
                0x0202f844                _io_m3cf
 .rodata        0x0202f888       0x20 io_m3sd.o
                0x0202f888                _io_m3sd
 .rodata        0x0202f8a8       0x44 io_mpcf.o
                0x0202f8a8                _io_mpcf
 .rodata        0x0202f8ec       0x30 io_njsd.o
                0x0202f8ec                _io_njsd
 .rodata        0x0202f91c       0x20 io_nmmc.o
                0x0202f91c                _io_nmmc
 .rodata        0x0202f93c       0x44 io_sccf.o
                0x0202f93c                _io_sccf
 .rodata        0x0202f980       0x20 io_scsd.o
                0x0202f980                _io_scsd
 .rodata        0x0202f9a0       0x24 NeoIOAsm.o
 .rodata        0x0202f9c4        0x8 C:/devkitPro/libnds/lib\libnds9.a(card.o)
 .rodata        0x0202f9cc      0x101 c:/devkitpro/devkitarm/bin/../lib/gcc/arm-eabi/4.1.1/../../../../arm-eabi/lib/thumb\libg.a(lib_a-ctype_.o)
                0x0202f9cc                _ctype_
 *fill*         0x0202facd        0x3 ff
 .rodata        0x0202fad0        0x4 c:/devkitpro/devkitarm/bin/../lib/gcc/arm-eabi/4.1.1/../../../../arm-eabi/lib/thumb\libg.a(lib_a-impure.o)
                0x0202fad0                _global_impure_ptr
 .rodata        0x0202fad4       0x4c c:/devkitpro/devkitarm/bin/../lib/gcc/arm-eabi/4.1.1/../../../../arm-eabi/lib/thumb\libsysbase.a(iosupport.o)
                0x0202fad4                dotab_stdnull
 .rodata        0x0202fb20        0xc c:/devkitpro/devkitarm/bin/../lib/gcc/arm-eabi/4.1.1/../../../../arm-eabi/lib/thumb\libsysbase.a(chdir.o)
                0x0202fb20                DIRECTORY_SEPARATOR
                0x0202fb24                DIRECTORY_THIS
                0x0202fb28                DIRECTORY_PARENT
 *all.rodata*(*)
 *(.roda)
 *(.rodata.*)
 .rodata.str1.4
                0x0202fb2c       0x28 EmuSystem.o
 .rodata.str1.4
                0x0202fb54       0x17 guiBase.o
                                 0x18 (size before relaxing)
 *fill*         0x0202fb6b        0x1 ff
 .rodata.str1.4
                0x0202fb6c        0xb guiButton.o
                                  0xc (size before relaxing)
 *fill*         0x0202fb77        0x1 ff
 .rodata.str1.4
                0x0202fb78        0xd guiCheckbox.o
                                 0x10 (size before relaxing)
 *fill*         0x0202fb85        0x3 ff
 .rodata.str1.4
                0x0202fb88        0xc guiConsole.o
 .rodata.str1.4
                0x0202fb94        0xa guiLabel.o
                                  0xc (size before relaxing)
 *fill*         0x0202fb9e        0x2 ff
 .rodata.str1.4
                0x0202fba0        0x9 guiMenu.o
                                  0xc (size before relaxing)
 *fill*         0x0202fba9        0x3 ff
 .rodata.str1.4
                0x0202fbac        0xb guiObject.o
                                  0xc (size before relaxing)
 *fill*         0x0202fbb7        0x1 ff
 .rodata.str1.4
                0x0202fbb8       0x10 guiRadioButton.o
 .rodata.str1.4
                0x0202fbc8        0xb guiStatus.o
                                  0xc (size before relaxing)
 *fill*         0x0202fbd3        0x1 ff
 .rodata.str1.4
                0x0202fbd4       0x98 LayoutInput.o
 .rodata.str1.4
                0x0202fc6c       0x80 LayoutMain.o
 .rodata.str1.4
                0x0202fcec       0x30 LayoutRomSelect.o
 .rodata.str1.4
                0x0202fd1c       0x41 NeoConfig.o
                                 0x48 (size before relaxing)
 *fill*         0x0202fd5d        0x3 ff
 .rodata.str1.4
                0x0202fd60       0x41 NeoCpu.o
                                 0x44 (size before relaxing)
 *fill*         0x0202fda1        0x3 ff
 .rodata.str1.4
                0x0202fda4       0x66 NeoMemory.o
                                 0x68 (size before relaxing)
 *fill*         0x0202fe0a        0x2 ff
 .rodata.str1.4
                0x0202fe0c      0x11d NeoSystem.o
                                0x120 (size before relaxing)
 *fill*         0x0202ff29        0x3 ff
 .rodata.str1.4
                0x0202ff2c       0x27 ram.o
                                 0x28 (size before relaxing)
 *fill*         0x0202ff53        0x1 ff
 .rodata.str1.4
                0x0202ff54       0x2f Sprintf.o
                                 0x30 (size before relaxing)
 *fill*         0x0202ff83        0x1 ff
 .rodata.str1.4
                0x0202ff84       0x46 template.o
                                 0x48 (size before relaxing)
 *fill*         0x0202ffca        0x2 ff
 .rodata.str1.4
                0x0202ffcc       0x22 directory.o
                                 0x28 (size before relaxing)
 *fill*         0x0202ffee        0x2 ff
 .rodata.str1.4
                0x0202fff0        0xc libfat.o
 .rodata.str1.4
                0x00000000        0x4 partition.o
 .rodata.str1.4
                0x00000000        0xc c:/devkitpro/devkitarm/bin/../lib/gcc/arm-eabi/4.1.1/../../../../arm-eabi/lib/thumb\libg.a(lib_a-impure.o)
                                  0x4 (size before relaxing)
 .rodata.str1.4
                0x0202fffc        0x8 c:/devkitpro/devkitarm/bin/../lib/gcc/arm-eabi/4.1.1/../../../../arm-eabi/lib/thumb\libsysbase.a(iosupport.o)
 *(.gnu.linkonce.r*)
                0x02030004                . = ALIGN (0x4)

.ARM.extab
 *(.ARM.extab* .gnu.linkonce.armextab.*)
                0x02030004                __exidx_start = .

.ARM.exidx
 *(.ARM.exidx* .gnu.linkonce.armexidx.*)
                0x02030004                __exidx_end = .
                0x02030004                . = ALIGN (0x4)
                0x02030004                PROVIDE (__preinit_array_start, .)

.preinit_array
 *(.preinit_array)
                0x02030004                PROVIDE (__preinit_array_end, .)
                0x02030004                PROVIDE (__init_array_start, .)

.init_array     0x02030004        0x4
 *(.init_array)
 .init_array    0x02030004        0x4 c:/devkitpro/devkitarm/bin/../lib/gcc/arm-eabi/4.1.1/thumb/crtbegin.o
                0x02030008                PROVIDE (__init_array_end, .)
                0x02030008                PROVIDE (__fini_array_start, .)

.fini_array     0x02030008        0x4
 *(.fini_array)
 .fini_array    0x02030008        0x4 c:/devkitpro/devkitarm/bin/../lib/gcc/arm-eabi/4.1.1/thumb/crtbegin.o
                0x0203000c                PROVIDE (__fini_array_end, .)

.ctors          0x0203000c        0x0
 *crtbegin.o(.ctors)
 *(EXCLUDE_FILE(*crtend.o) .ctors)
 *(SORT(.ctors.*))
 *(.ctors)
                0x0203000c                . = ALIGN (0x4)

.dtors          0x0203000c        0x0
 *crtbegin.o(.dtors)
 *(EXCLUDE_FILE(*crtend.o) .dtors)
 *(SORT(.dtors.*))
 *(.dtors)
                0x0203000c                . = ALIGN (0x4)

.eh_frame       0x0203000c        0x4
 *(.eh_frame)
 .eh_frame      0x0203000c        0x0 c:/devkitpro/devkitarm/bin/../lib/gcc/arm-eabi/4.1.1/thumb/crtbegin.o
 .eh_frame      0x0203000c        0x4 c:/devkitpro/devkitarm/bin/../lib/gcc/arm-eabi/4.1.1/thumb/crtend.o
                0x02030010                . = ALIGN (0x4)

.gcc_except_table
                0x02030010        0x0
 *(.gcc_except_table)
                0x02030010                . = ALIGN (0x4)

.jcr            0x02030010        0x4
 *(.jcr)
 .jcr           0x02030010        0x0 c:/devkitpro/devkitarm/bin/../lib/gcc/arm-eabi/4.1.1/thumb/crtbegin.o
 .jcr           0x02030010        0x4 c:/devkitpro/devkitarm/bin/../lib/gcc/arm-eabi/4.1.1/thumb/crtend.o

.got
 *(.got.plt)
 *(.got)
 *(.rel.got)

.ewram          0x02030014        0x0
                0x02030014                __ewram_start = <code 342> (.)
 *(.ewram)
 *ewram.*(.text)
                0x02030014                . = ALIGN (0x4)

.data           0x02030014    0x15010
                0x02030014                __data_start = <code 342> (.)
 *(.data)
 .data          0x02030014        0x0 c:/devkitpro/devkitarm/bin/../lib/gcc/arm-eabi/4.1.1/../../../../arm-eabi/lib/thumb/ds_arm9_crt0.o
 .data          0x02030014        0x0 c:/devkitpro/devkitarm/bin/../lib/gcc/arm-eabi/4.1.1/thumb/crti.o
 .data          0x02030014        0x4 c:/devkitpro/devkitarm/bin/../lib/gcc/arm-eabi/4.1.1/thumb/crtbegin.o
                0x02030014                __dso_handle
 .data          0x02030018        0x0 gui.bin.o
 .data          0x02030018        0x0 Disa.o
 .data          0x02030018        0x0 EmuSystem.o
 .data          0x02030018        0x0 guiBase.o
 .data          0x02030018        0x0 guiButton.o
 .data          0x02030018        0x0 guiCheckbox.o
 .data          0x02030018        0x0 guiConsole.o
 .data          0x02030018        0x0 guiLabel.o
 .data          0x02030018        0x0 guiMenu.o
 .data          0x02030018        0x0 guiObject.o
 .data          0x02030018        0x0 guiRadioButton.o
 .data          0x02030018        0x0 guiRender.o
 .data          0x02030018        0x0 guiStatus.o
 .data          0x02030018        0x0 LayoutDebug.o
 .data          0x02030018        0x0 LayoutInput.o
 .data          0x02030018        0x0 LayoutMain.o
 .data          0x02030018        0x0 LayoutRomSelect.o
 .data          0x02030018        0x0 LinearHeap.o
 .data          0x02030018        0x0 NeoAudioStream.arm.o
 .data          0x02030018        0x0 NeoConfig.o
 .data          0x02030018        0x0 NeoCpu.o
 .data          0x02030018        0x0 NeoIO.o
 .data          0x02030018        0x0 NeoMemory.o
 .data          0x02030018        0x0 NeoProfiler.o
 .data          0x02030018        0x0 NeoProtection.o
 .data          0x02030018        0x4 NeoSystem.o
 .data          0x0203001c        0x0 NeoVideo.o
 .data          0x0203001c        0x0 NeoVideoFixed.arm.o
 .data          0x0203001c        0x4 NeoVideoPalette.arm.o
 .data          0x02030020        0x0 NeoVideoSprites.arm.o
 .data          0x02030020       0x20 pd4990a.o
                0x02030020                pd4990a
 .data          0x02030040       0x18 ram.o
                0x02030040                _types
 .data          0x02030058        0x0 Sprintf.o
 .data          0x02030058        0x0 template.o
 .data          0x02030058        0x0 cache.o
 .data          0x02030058        0x0 directory.o
 .data          0x02030058        0x0 fatdir.o
 .data          0x02030058        0x0 fatfile.o
 .data          0x02030058        0x0 file_allocation_table.o
 .data          0x02030058        0x0 filetime.o
 .data          0x02030058        0x0 libfat.o
 .data          0x02030058        0x4 partition.o
                0x02030058                DEVICE_NAME
 .data          0x0203005c       0x20 disc.o
                0x0203005c                ioInterfaces
 .data          0x0203007c        0x0 io_cf_common.o
 .data          0x0203007c        0x0 io_efa2.o
 .data          0x0203007c        0x0 io_fcsr.o
 .data          0x0203007c        0x0 io_m3_common.o
 .data          0x0203007c        0x0 io_m3cf.o
 .data          0x0203007c        0x0 io_m3sd.o
 .data          0x0203007c        0x0 io_mpcf.o
 .data          0x0203007c        0x0 io_njsd.o
 .data          0x0203007c        0xc io_nmmc.o
                0x0203007c                _NMMC_spi_freq
                0x02030080                selectMMC_command
 .data          0x02030088        0x0 io_sc_common.o
 .data          0x02030088        0x0 io_sccf.o
 .data          0x02030088        0x0 io_scsd.o
 .data          0x02030088        0x0 io_sd_common.o
 .data          0x02030088        0x0 NeoIPC.o
 *fill*         0x02030088        0x8 ff
 .data          0x02030090    0x14320 Cyclone.o
 .data          0x020443b0        0x0 NeoAudioStreamAsm.o
 .data          0x020443b0        0x0 NeoCpuAsm.o
 .data          0x020443b0        0x0 NeoIOAsm.o
 .data          0x020443b0        0x0 NeoMemoryAsm.o
 .data          0x020443b0        0x0 NeoVideoAsm.o
 .data          0x020443b0        0x0 io_dldi.o
 .data          0x020443b0        0x0 io_scsd_s.o
 .data          0x020443b0        0x3 C:/devkitPro/libnds/lib\libnds9.a(keys.o)
 .data          0x020443b3        0x0 C:/devkitPro/libnds/lib\libnds9.a(touch.o)
 .data          0x020443b3        0x0 C:/devkitPro/libnds/lib\libnds9.a(video.o)
 .data          0x020443b3        0x0 C:/devkitPro/libnds/lib\libnds9.a(card.o)
 .data          0x020443b3        0x0 C:/devkitPro/libnds/lib\libnds9.a(interrupts.o)
 .data          0x020443b3        0x0 C:/devkitPro/libnds/lib\libnds9.a(dcache.o)
 .data          0x020443b3        0x0 C:/devkitPro/libnds/lib\libnds9.a(biosCalls.o)
 .data          0x020443b3        0x0 C:/devkitPro/libnds/lib\libnds9.a(interruptDispatcher.o)
 .data          0x020443b3        0x0 c:/devkitpro/devkitarm/bin/../lib/gcc/arm-eabi/4.1.1/thumb\libgcc.a(_udivsi3.o)
 .data          0x020443b3        0x0 c:/devkitpro/devkitarm/bin/../lib/gcc/arm-eabi/4.1.1/thumb\libgcc.a(_divsi3.o)
 .data          0x020443b3        0x0 c:/devkitpro/devkitarm/bin/../lib/gcc/arm-eabi/4.1.1/thumb\libgcc.a(_dvmd_tls.o)
 .data          0x020443b3        0x0 c:/devkitpro/devkitarm/bin/../lib/gcc/arm-eabi/4.1.1/thumb\libgcc.a(_call_via_rX.o)
 *fill*         0x020443b3        0x1 ff
 .data          0x020443b4        0x4 c:/devkitpro/devkitarm/bin/../lib/gcc/arm-eabi/4.1.1/../../../../arm-eabi/lib/thumb\libg.a(lib_a-ctype_.o)
                0x020443b4                __ctype_ptr
 .data          0x020443b8        0x0 c:/devkitpro/devkitarm/bin/../lib/gcc/arm-eabi/4.1.1/../../../../arm-eabi/lib/thumb\libg.a(lib_a-init.o)
 .data          0x020443b8        0x0 c:/devkitpro/devkitarm/bin/../lib/gcc/arm-eabi/4.1.1/../../../../arm-eabi/lib/thumb\libg.a(lib_a-malloc.o)
 .data          0x020443b8      0x410 c:/devkitpro/devkitarm/bin/../lib/gcc/arm-eabi/4.1.1/../../../../arm-eabi/lib/thumb\libg.a(lib_a-mallocr.o)
                0x020447c4                __malloc_sbrk_base
                0x020443b8                __malloc_av_
                0x020447c0                __malloc_trim_threshold
 .data          0x020447c8        0x0 c:/devkitpro/devkitarm/bin/../lib/gcc/arm-eabi/4.1.1/../../../../arm-eabi/lib/thumb\libg.a(lib_a-memcpy.o)
 .data          0x020447c8        0x0 c:/devkitpro/devkitarm/bin/../lib/gcc/arm-eabi/4.1.1/../../../../arm-eabi/lib/thumb\libg.a(lib_a-memmove.o)
 .data          0x020447c8        0x0 c:/devkitpro/devkitarm/bin/../lib/gcc/arm-eabi/4.1.1/../../../../arm-eabi/lib/thumb\libg.a(lib_a-memset.o)
 .data          0x020447c8        0x0 c:/devkitpro/devkitarm/bin/../lib/gcc/arm-eabi/4.1.1/../../../../arm-eabi/lib/thumb\libg.a(lib_a-mlock.o)
 .data          0x020447c8        0x0 c:/devkitpro/devkitarm/bin/../lib/gcc/arm-eabi/4.1.1/../../../../arm-eabi/lib/thumb\libg.a(lib_a-qsort.o)
 .data          0x020447c8        0x0 c:/devkitpro/devkitarm/bin/../lib/gcc/arm-eabi/4.1.1/../../../../arm-eabi/lib/thumb\libg.a(lib_a-realloc.o)
 .data          0x020447c8        0x0 c:/devkitpro/devkitarm/bin/../lib/gcc/arm-eabi/4.1.1/../../../../arm-eabi/lib/thumb\libg.a(lib_a-reallocr.o)
 .data          0x020447c8        0x0 c:/devkitpro/devkitarm/bin/../lib/gcc/arm-eabi/4.1.1/../../../../arm-eabi/lib/thumb\libg.a(lib_a-sbrkr.o)
 .data          0x020447c8        0x0 c:/devkitpro/devkitarm/bin/../lib/gcc/arm-eabi/4.1.1/../../../../arm-eabi/lib/thumb\libg.a(lib_a-strcasecmp.o)
 .data          0x020447c8        0x0 c:/devkitpro/devkitarm/bin/../lib/gcc/arm-eabi/4.1.1/../../../../arm-eabi/lib/thumb\libg.a(lib_a-strcat.o)
 .data          0x020447c8        0x0 c:/devkitpro/devkitarm/bin/../lib/gcc/arm-eabi/4.1.1/../../../../arm-eabi/lib/thumb\libg.a(lib_a-strchr.o)
 .data          0x020447c8        0x0 c:/devkitpro/devkitarm/bin/../lib/gcc/arm-eabi/4.1.1/../../../../arm-eabi/lib/thumb\libg.a(lib_a-strcmp.o)
 .data          0x020447c8        0x0 c:/devkitpro/devkitarm/bin/../lib/gcc/arm-eabi/4.1.1/../../../../arm-eabi/lib/thumb\libg.a(lib_a-strcpy.o)
 .data          0x020447c8        0x0 c:/devkitpro/devkitarm/bin/../lib/gcc/arm-eabi/4.1.1/../../../../arm-eabi/lib/thumb\libg.a(lib_a-strdup.o)
 .data          0x020447c8        0x0 c:/devkitpro/devkitarm/bin/../lib/gcc/arm-eabi/4.1.1/../../../../arm-eabi/lib/thumb\libg.a(lib_a-strdup_r.o)
 .data          0x020447c8        0x0 c:/devkitpro/devkitarm/bin/../lib/gcc/arm-eabi/4.1.1/../../../../arm-eabi/lib/thumb\libg.a(lib_a-strlen.o)
 .data          0x020447c8        0x0 c:/devkitpro/devkitarm/bin/../lib/gcc/arm-eabi/4.1.1/../../../../arm-eabi/lib/thumb\libg.a(lib_a-strncasecmp.o)
 .data          0x020447c8        0x0 c:/devkitpro/devkitarm/bin/../lib/gcc/arm-eabi/4.1.1/../../../../arm-eabi/lib/thumb\libg.a(lib_a-strncmp.o)
 .data          0x020447c8        0x0 c:/devkitpro/devkitarm/bin/../lib/gcc/arm-eabi/4.1.1/../../../../arm-eabi/lib/thumb\libg.a(lib_a-strncpy.o)
 .data          0x020447c8        0x0 c:/devkitpro/devkitarm/bin/../lib/gcc/arm-eabi/4.1.1/../../../../arm-eabi/lib/thumb\libg.a(lib_a-strnlen.o)
 .data          0x020447c8        0x0 c:/devkitpro/devkitarm/bin/../lib/gcc/arm-eabi/4.1.1/../../../../arm-eabi/lib/thumb\libg.a(lib_a-strpbrk.o)
 .data          0x020447c8        0x0 c:/devkitpro/devkitarm/bin/../lib/gcc/arm-eabi/4.1.1/../../../../arm-eabi/lib/thumb\libg.a(lib_a-strrchr.o)
 .data          0x020447c8        0x0 c:/devkitpro/devkitarm/bin/../lib/gcc/arm-eabi/4.1.1/../../../../arm-eabi/lib/thumb\libg.a(lib_a-strupr.o)
 .data          0x020447c8        0x0 c:/devkitpro/devkitarm/bin/../lib/gcc/arm-eabi/4.1.1/../../../../arm-eabi/lib/thumb\libg.a(lib_a-sysclose.o)
 .data          0x020447c8        0x0 c:/devkitpro/devkitarm/bin/../lib/gcc/arm-eabi/4.1.1/../../../../arm-eabi/lib/thumb\libg.a(lib_a-sysfstat.o)
 .data          0x020447c8        0x0 c:/devkitpro/devkitarm/bin/../lib/gcc/arm-eabi/4.1.1/../../../../arm-eabi/lib/thumb\libg.a(lib_a-syslseek.o)
 .data          0x020447c8        0x0 c:/devkitpro/devkitarm/bin/../lib/gcc/arm-eabi/4.1.1/../../../../arm-eabi/lib/thumb\libg.a(lib_a-sysopen.o)
 .data          0x020447c8        0x0 c:/devkitpro/devkitarm/bin/../lib/gcc/arm-eabi/4.1.1/../../../../arm-eabi/lib/thumb\libg.a(lib_a-sysread.o)
 .data          0x020447c8        0x0 c:/devkitpro/devkitarm/bin/../lib/gcc/arm-eabi/4.1.1/../../../../arm-eabi/lib/thumb\libg.a(lib_a-syswrite.o)
 .data          0x020447c8        0x0 c:/devkitpro/devkitarm/bin/../lib/gcc/arm-eabi/4.1.1/../../../../arm-eabi/lib/thumb\libg.a(lib_a-freer.o)
 .data          0x020447c8      0x418 c:/devkitpro/devkitarm/bin/../lib/gcc/arm-eabi/4.1.1/../../../../arm-eabi/lib/thumb\libg.a(lib_a-impure.o)
                0x020447c8                _impure_ptr
 .data          0x02044be0        0x0 c:/devkitpro/devkitarm/bin/../lib/gcc/arm-eabi/4.1.1/../../../../arm-eabi/lib/thumb\libg.a(lib_a-reent.o)
 .data          0x02044be0       0x44 c:/devkitpro/devkitarm/bin/../lib/gcc/arm-eabi/4.1.1/../../../../arm-eabi/lib/thumb\libsysbase.a(iosupport.o)
                0x02044be0                devoptab_list
 .data          0x02044c24        0x0 c:/devkitpro/devkitarm/bin/../lib/gcc/arm-eabi/4.1.1/../../../../arm-eabi/lib/thumb\libsysbase.a(close.o)
 .data          0x02044c24        0x0 c:/devkitpro/devkitarm/bin/../lib/gcc/arm-eabi/4.1.1/../../../../arm-eabi/lib/thumb\libsysbase.a(fstat.o)
 .data          0x02044c24        0x0 c:/devkitpro/devkitarm/bin/../lib/gcc/arm-eabi/4.1.1/../../../../arm-eabi/lib/thumb\libsysbase.a(lseek.o)
 .data          0x02044c24        0x0 c:/devkitpro/devkitarm/bin/../lib/gcc/arm-eabi/4.1.1/../../../../arm-eabi/lib/thumb\libsysbase.a(open.o)
 .data          0x02044c24        0x0 c:/devkitpro/devkitarm/bin/../lib/gcc/arm-eabi/4.1.1/../../../../arm-eabi/lib/thumb\libsysbase.a(read.o)
 .data          0x02044c24        0x0 c:/devkitpro/devkitarm/bin/../lib/gcc/arm-eabi/4.1.1/../../../../arm-eabi/lib/thumb\libsysbase.a(sbrk.o)
 .data          0x02044c24        0x0 c:/devkitpro/devkitarm/bin/../lib/gcc/arm-eabi/4.1.1/../../../../arm-eabi/lib/thumb\libsysbase.a(write.o)
 .data          0x02044c24        0x0 c:/devkitpro/devkitarm/bin/../lib/gcc/arm-eabi/4.1.1/../../../../arm-eabi/lib/thumb\libsysbase.a(malloc_vars.o)
 .data          0x02044c24      0x400 c:/devkitpro/devkitarm/bin/../lib/gcc/arm-eabi/4.1.1/../../../../arm-eabi/lib/thumb\libsysbase.a(chdir.o)
 .data          0x02045024        0x0 c:/devkitpro/devkitarm/bin/../lib/gcc/arm-eabi/4.1.1/../../../../arm-eabi/lib/thumb\libsysbase.a(dir.o)
 .data          0x02045024        0x0 c:/devkitpro/devkitarm/bin/../lib/gcc/arm-eabi/4.1.1/thumb/crtend.o
 .data          0x02045024        0x0 c:/devkitpro/devkitarm/bin/../lib/gcc/arm-eabi/4.1.1/thumb/crtn.o
 *(.data.*)
 *(.gnu.linkonce.d*)
                0x02045024                . = ALIGN (0x4)
                0x02045024                __data_end = <code 342> (.)
                0x02045024                __dtcm_lma = .

.dtcm           0x0b000000       0x20 load address 0x02045024
 *(.dtcm)
 .dtcm          0x0b000000       0x20 NeoAudioStream.arm.o
 *(.dtcm.*)
                0x0b000020                . = ALIGN (0x4)
                0x0b000020                __dtcm_end = <code 342> (.)
                0x02045044                __itcm_lma = (__dtcm_lma + SIZEOF (.dtcm))

.itcm           0x01000000     0x6a30 load address 0x02045044
 *(.itcm)
 .itcm          0x01000000     0x628c Cyclone.o
                0x01000010                CycloneNextInterrupt
 .itcm          0x0100628c      0x3ac NeoCpuAsm.o
                0x010062b0                neoDefaultRead8
                0x01006458                neoReadRom032
                0x0100628c                neoCpuRead8
                0x0100633c                neoDefaultWrite32
                0x01006398                neoReadRom16
                0x01006530                neoReadBios8
                0x0100648c                neoReadRam8
                0x010063a8                neoReadRom32
                0x01006474                neoRom0Pc
                0x010064b4                neoReadRam32
                0x010063c0                neoRomPc
                0x010062dc                neoDefaultRead32
                0x01006444                neoReadRom016
                0x01006418                neoRom1Pc
                0x0100658c                neoCpuEvent
                0x01006370                neoCpuCheckPc
                0x010064f8                neoWriteRam32
                0x010064d0                neoWriteRam8
                0x010063e8                neoReadRom116
                0x010064a0                neoReadRam16
                0x01006574                neoBiosPc
                0x010063d4                neoReadRom18
                0x010062a4                neoCpuRead32
                0x01006318                neoCpuWrite8
                0x01006544                neoReadBios16
                0x01006330                neoCpuWrite32
                0x010063fc                neoReadRom132
                0x01006384                neoReadRom8
                0x01006298                neoCpuRead16
                0x01006518                neoRamPc
                0x01006324                neoCpuWrite16
                0x010064e4                neoWriteRam16
                0x01006558                neoReadBios32
                0x01006430                neoReadRom08
 .itcm          0x01006638      0x134 NeoIOAsm.o
                0x0100665c                neoWriteVideo32
                0x01006644                neoWriteVideo8
                0x01006638                neoWriteVideo16
 .itcm          0x0100676c      0x134 NeoMemoryAsm.o
                0x010067a0                neoReadSlot2Rom32
                0x0100683c                neoReadBankedRom32
                0x010067c0                neoSlot2RomPc
                0x010067dc                neoReadBankedRom8
                0x0100676c                neoReadSlot2Rom8
                0x0100680c                neoReadBankedRom16
                0x01006788                neoReadSlot2Rom16
 .itcm          0x010068a0       0xc8 C:/devkitPro/libnds/lib\libnds9.a(interrupts.o)
                0x010068a0                irqTable
 .itcm          0x01006968       0xc8 C:/devkitPro/libnds/lib\libnds9.a(interruptDispatcher.o)
                0x01006968                IntrMain
 *itcm.*(.text)
                0x01006a30                . = ALIGN (0x4)
                0x01006a30                __itcm_end = <code 342> (.)

.sbss           0x0b000020     0x2b98
                0x0b000020                __sbss_start = <code 342> (.)
                0x0b000020                __sbss_start__ = <code 342> (.)
 *(.sbss)
 .sbss          0x0b000020     0x2000 NeoSystem.o
                0x0b000020                g_neoContext
 .sbss          0x0b002020       0x14 NeoVideo.o
                0x0b002020                g_videoBounds
                0x0b002030                g_frameCount
 .sbss          0x0b002034      0x37c NeoVideoFixed.arm.o
 .sbss          0x0b0023b0      0x808 NeoVideoSprites.arm.o
                0x0b002bb8                . = ALIGN (0x4)
                0x0b002bb8                __sbss_end = <code 342> (.)
                0x0204ba74                __bss_lma = (__itcm_lma + SIZEOF (.itcm))
                0x0204ba74                __appended_data = (__itcm_lma + SIZEOF (.itcm))

.bss            0x0204ba74   0x383f50 load address 0x0204ba74
                0x0204ba74                __bss_start = <code 342> (.)
                0x0204ba74                __bss_start__ = <code 342> (.)
 *(.dynbss)
 *(.gnu.linkonce.b*)
 *(.bss*)
 .bss           0x0204ba74        0x0 c:/devkitpro/devkitarm/bin/../lib/gcc/arm-eabi/4.1.1/../../../../arm-eabi/lib/thumb/ds_arm9_crt0.o
 .bss           0x0204ba74        0x0 c:/devkitpro/devkitarm/bin/../lib/gcc/arm-eabi/4.1.1/thumb/crti.o
 .bss           0x0204ba74       0x1c c:/devkitpro/devkitarm/bin/../lib/gcc/arm-eabi/4.1.1/thumb/crtbegin.o
 .bss           0x0204ba90        0x0 gui.bin.o
 .bss           0x0204ba90        0x0 Disa.o
 *fill*         0x0204ba90       0x10 00
 .bss           0x0204baa0   0x196020 EmuSystem.o
 .bss           0x021e1ac0     0x4080 guiBase.o
 .bss           0x021e5b40        0x0 guiButton.o
 .bss           0x021e5b40        0x0 guiCheckbox.o
 .bss           0x021e5b40      0x320 guiConsole.o
 .bss           0x021e5e60        0x0 guiLabel.o
 .bss           0x021e5e60        0x0 guiMenu.o
 .bss           0x021e5e60        0x0 guiObject.o
 .bss           0x021e5e60        0x0 guiRadioButton.o
 .bss           0x021e5e60        0x0 guiRender.o
 .bss           0x021e5e60        0x0 guiStatus.o
 .bss           0x021e5e60        0x0 LayoutDebug.o
 .bss           0x021e5e60        0x0 LayoutInput.o
 .bss           0x021e5e60        0x0 LayoutMain.o
 .bss           0x021e5e60        0x0 LayoutRomSelect.o
 .bss           0x021e5e60        0x0 LinearHeap.o
 .bss           0x021e5e60    0x4a6e0 NeoAudioStream.arm.o
 .bss           0x02230540      0x100 NeoConfig.o
 .bss           0x02230640        0x0 NeoCpu.o
 .bss           0x02230640        0x0 NeoIO.o
 .bss           0x02230640   0x1578c0 NeoMemory.o
 .bss           0x02387f00        0x0 NeoProfiler.o
 .bss           0x02387f00     0x2020 NeoProtection.o
 .bss           0x02389f20      0x420 NeoSystem.o
 .bss           0x0238a340        0x8 NeoVideo.o
 *fill*         0x0238a348       0x18 00
 .bss           0x0238a360     0x42a0 NeoVideoFixed.arm.o
 .bss           0x0238e600       0x10 NeoVideoPalette.arm.o
 *fill*         0x0238e610      0x1f0 00
 .bss           0x0238e800    0x40400 NeoVideoSprites.arm.o
 .bss           0x023cec00       0x28 pd4990a.o
 .bss           0x023cec28       0x10 ram.o
 .bss           0x023cec38        0x0 Sprintf.o
 .bss           0x023cec38        0x0 template.o
 .bss           0x023cec38        0x0 cache.o
 .bss           0x023cec38        0x0 directory.o
 .bss           0x023cec38        0x0 fatdir.o
 .bss           0x023cec38        0x0 fatfile.o
 .bss           0x023cec38        0x0 file_allocation_table.o
 .bss           0x023cec38        0x0 filetime.o
 .bss           0x023cec38        0x0 libfat.o
 .bss           0x023cec38       0x10 partition.o
                0x023cec38                _FAT_partitions
 .bss           0x023cec48        0x0 disc.o
 .bss           0x023cec48       0x24 io_cf_common.o
                0x023cec48                cfRegisters
 .bss           0x023cec6c        0x0 io_efa2.o
 .bss           0x023cec6c       0x34 io_fcsr.o
                0x023cec70                _FCSR_SramSectorPointer
                0x023cec6c                _FCSR_FileSysPointer
                0x023cec80                _FCSR_SramSectorStart
                0x023cec90                _FCSR_SramSectorEnd
 .bss           0x023ceca0        0x0 io_m3_common.o
 .bss           0x023ceca0        0x0 io_m3cf.o
 .bss           0x023ceca0        0x4 io_m3sd.o
 .bss           0x023ceca4        0x0 io_mpcf.o
 .bss           0x023ceca4        0x8 io_njsd.o
 .bss           0x023cecac        0x0 io_nmmc.o
 .bss           0x023cecac        0x0 io_sc_common.o
 .bss           0x023cecac        0x0 io_sccf.o
 .bss           0x023cecac        0x4 io_scsd.o
 .bss           0x023cecb0        0x0 io_sd_common.o
 .bss           0x023cecb0        0x4 NeoIPC.o
 .bss           0x023cecb4        0x0 Cyclone.o
 .bss           0x023cecb4        0x0 NeoAudioStreamAsm.o
 .bss           0x023cecb4        0x0 NeoCpuAsm.o
 .bss           0x023cecb4        0x0 NeoIOAsm.o
 .bss           0x023cecb4        0x0 NeoMemoryAsm.o
 .bss           0x023cecb4        0x0 NeoVideoAsm.o
 .bss           0x023cecb4        0x0 io_dldi.o
 .bss           0x023cecb4        0x0 io_scsd_s.o
 .bss           0x023cecb4        0x6 C:/devkitPro/libnds/lib\libnds9.a(keys.o)
 .bss           0x023cecba        0x0 C:/devkitPro/libnds/lib\libnds9.a(touch.o)
 .bss           0x023cecba        0x0 C:/devkitPro/libnds/lib\libnds9.a(video.o)
 .bss           0x023cecba        0x0 C:/devkitPro/libnds/lib\libnds9.a(card.o)
 .bss           0x023cecba        0x0 C:/devkitPro/libnds/lib\libnds9.a(interrupts.o)
 .bss           0x023cecba        0x0 C:/devkitPro/libnds/lib\libnds9.a(dcache.o)
 .bss           0x023cecba        0x0 C:/devkitPro/libnds/lib\libnds9.a(biosCalls.o)
 .bss           0x023cecba        0x0 C:/devkitPro/libnds/lib\libnds9.a(interruptDispatcher.o)
 .bss           0x023cecba        0x0 c:/devkitpro/devkitarm/bin/../lib/gcc/arm-eabi/4.1.1/thumb\libgcc.a(_udivsi3.o)
 .bss           0x023cecba        0x0 c:/devkitpro/devkitarm/bin/../lib/gcc/arm-eabi/4.1.1/thumb\libgcc.a(_divsi3.o)
 .bss           0x023cecba        0x0 c:/devkitpro/devkitarm/bin/../lib/gcc/arm-eabi/4.1.1/thumb\libgcc.a(_dvmd_tls.o)
 .bss           0x023cecba        0x0 c:/devkitpro/devkitarm/bin/../lib/gcc/arm-eabi/4.1.1/thumb\libgcc.a(_call_via_rX.o)
 .bss           0x023cecba        0x0 c:/devkitpro/devkitarm/bin/../lib/gcc/arm-eabi/4.1.1/../../../../arm-eabi/lib/thumb\libg.a(lib_a-ctype_.o)
 .bss           0x023cecba        0x0 c:/devkitpro/devkitarm/bin/../lib/gcc/arm-eabi/4.1.1/../../../../arm-eabi/lib/thumb\libg.a(lib_a-init.o)
 .bss           0x023cecba        0x0 c:/devkitpro/devkitarm/bin/../lib/gcc/arm-eabi/4.1.1/../../../../arm-eabi/lib/thumb\libg.a(lib_a-malloc.o)
 *fill*         0x023cecba        0x2 00
 .bss           0x023cecbc       0x34 c:/devkitpro/devkitarm/bin/../lib/gcc/arm-eabi/4.1.1/../../../../arm-eabi/lib/thumb\libg.a(lib_a-mallocr.o)
                0x023cecbc                __malloc_top_pad
                0x023cecc0                __malloc_max_sbrked_mem
                0x023cecc8                __malloc_current_mallinfo
                0x023cecc4                __malloc_max_total_mem
 .bss           0x023cecf0        0x0 c:/devkitpro/devkitarm/bin/../lib/gcc/arm-eabi/4.1.1/../../../../arm-eabi/lib/thumb\libg.a(lib_a-memcpy.o)
 .bss           0x023cecf0        0x0 c:/devkitpro/devkitarm/bin/../lib/gcc/arm-eabi/4.1.1/../../../../arm-eabi/lib/thumb\libg.a(lib_a-memmove.o)
 .bss           0x023cecf0        0x0 c:/devkitpro/devkitarm/bin/../lib/gcc/arm-eabi/4.1.1/../../../../arm-eabi/lib/thumb\libg.a(lib_a-memset.o)
 .bss           0x023cecf0        0x0 c:/devkitpro/devkitarm/bin/../lib/gcc/arm-eabi/4.1.1/../../../../arm-eabi/lib/thumb\libg.a(lib_a-mlock.o)
 .bss           0x023cecf0        0x0 c:/devkitpro/devkitarm/bin/../lib/gcc/arm-eabi/4.1.1/../../../../arm-eabi/lib/thumb\libg.a(lib_a-qsort.o)
 .bss           0x023cecf0        0x0 c:/devkitpro/devkitarm/bin/../lib/gcc/arm-eabi/4.1.1/../../../../arm-eabi/lib/thumb\libg.a(lib_a-realloc.o)
 .bss           0x023cecf0        0x0 c:/devkitpro/devkitarm/bin/../lib/gcc/arm-eabi/4.1.1/../../../../arm-eabi/lib/thumb\libg.a(lib_a-reallocr.o)
 .bss           0x023cecf0        0x0 c:/devkitpro/devkitarm/bin/../lib/gcc/arm-eabi/4.1.1/../../../../arm-eabi/lib/thumb\libg.a(lib_a-sbrkr.o)
 .bss           0x023cecf0        0x0 c:/devkitpro/devkitarm/bin/../lib/gcc/arm-eabi/4.1.1/../../../../arm-eabi/lib/thumb\libg.a(lib_a-strcasecmp.o)
 .bss           0x023cecf0        0x0 c:/devkitpro/devkitarm/bin/../lib/gcc/arm-eabi/4.1.1/../../../../arm-eabi/lib/thumb\libg.a(lib_a-strcat.o)
 .bss           0x023cecf0        0x0 c:/devkitpro/devkitarm/bin/../lib/gcc/arm-eabi/4.1.1/../../../../arm-eabi/lib/thumb\libg.a(lib_a-strchr.o)
 .bss           0x023cecf0        0x0 c:/devkitpro/devkitarm/bin/../lib/gcc/arm-eabi/4.1.1/../../../../arm-eabi/lib/thumb\libg.a(lib_a-strcmp.o)
 .bss           0x023cecf0        0x0 c:/devkitpro/devkitarm/bin/../lib/gcc/arm-eabi/4.1.1/../../../../arm-eabi/lib/thumb\libg.a(lib_a-strcpy.o)
 .bss           0x023cecf0        0x0 c:/devkitpro/devkitarm/bin/../lib/gcc/arm-eabi/4.1.1/../../../../arm-eabi/lib/thumb\libg.a(lib_a-strdup.o)
 .bss           0x023cecf0        0x0 c:/devkitpro/devkitarm/bin/../lib/gcc/arm-eabi/4.1.1/../../../../arm-eabi/lib/thumb\libg.a(lib_a-strdup_r.o)
 .bss           0x023cecf0        0x0 c:/devkitpro/devkitarm/bin/../lib/gcc/arm-eabi/4.1.1/../../../../arm-eabi/lib/thumb\libg.a(lib_a-strlen.o)
 .bss           0x023cecf0        0x0 c:/devkitpro/devkitarm/bin/../lib/gcc/arm-eabi/4.1.1/../../../../arm-eabi/lib/thumb\libg.a(lib_a-strncasecmp.o)
 .bss           0x023cecf0        0x0 c:/devkitpro/devkitarm/bin/../lib/gcc/arm-eabi/4.1.1/../../../../arm-eabi/lib/thumb\libg.a(lib_a-strncmp.o)
 .bss           0x023cecf0        0x0 c:/devkitpro/devkitarm/bin/../lib/gcc/arm-eabi/4.1.1/../../../../arm-eabi/lib/thumb\libg.a(lib_a-strncpy.o)
 .bss           0x023cecf0        0x0 c:/devkitpro/devkitarm/bin/../lib/gcc/arm-eabi/4.1.1/../../../../arm-eabi/lib/thumb\libg.a(lib_a-strnlen.o)
 .bss           0x023cecf0        0x0 c:/devkitpro/devkitarm/bin/../lib/gcc/arm-eabi/4.1.1/../../../../arm-eabi/lib/thumb\libg.a(lib_a-strpbrk.o)
 .bss           0x023cecf0        0x0 c:/devkitpro/devkitarm/bin/../lib/gcc/arm-eabi/4.1.1/../../../../arm-eabi/lib/thumb\libg.a(lib_a-strrchr.o)
 .bss           0x023cecf0        0x0 c:/devkitpro/devkitarm/bin/../lib/gcc/arm-eabi/4.1.1/../../../../arm-eabi/lib/thumb\libg.a(lib_a-strupr.o)
 .bss           0x023cecf0        0x0 c:/devkitpro/devkitarm/bin/../lib/gcc/arm-eabi/4.1.1/../../../../arm-eabi/lib/thumb\libg.a(lib_a-sysclose.o)
 .bss           0x023cecf0        0x0 c:/devkitpro/devkitarm/bin/../lib/gcc/arm-eabi/4.1.1/../../../../arm-eabi/lib/thumb\libg.a(lib_a-sysfstat.o)
 .bss           0x023cecf0        0x0 c:/devkitpro/devkitarm/bin/../lib/gcc/arm-eabi/4.1.1/../../../../arm-eabi/lib/thumb\libg.a(lib_a-syslseek.o)
 .bss           0x023cecf0        0x0 c:/devkitpro/devkitarm/bin/../lib/gcc/arm-eabi/4.1.1/../../../../arm-eabi/lib/thumb\libg.a(lib_a-sysopen.o)
 .bss           0x023cecf0        0x0 c:/devkitpro/devkitarm/bin/../lib/gcc/arm-eabi/4.1.1/../../../../arm-eabi/lib/thumb\libg.a(lib_a-sysread.o)
 .bss           0x023cecf0        0x0 c:/devkitpro/devkitarm/bin/../lib/gcc/arm-eabi/4.1.1/../../../../arm-eabi/lib/thumb\libg.a(lib_a-syswrite.o)
 .bss           0x023cecf0        0x0 c:/devkitpro/devkitarm/bin/../lib/gcc/arm-eabi/4.1.1/../../../../arm-eabi/lib/thumb\libg.a(lib_a-freer.o)
 .bss           0x023cecf0        0x0 c:/devkitpro/devkitarm/bin/../lib/gcc/arm-eabi/4.1.1/../../../../arm-eabi/lib/thumb\libg.a(lib_a-impure.o)
 .bss           0x023cecf0        0x0 c:/devkitpro/devkitarm/bin/../lib/gcc/arm-eabi/4.1.1/../../../../arm-eabi/lib/thumb\libg.a(lib_a-reent.o)
 .bss           0x023cecf0        0x0 c:/devkitpro/devkitarm/bin/../lib/gcc/arm-eabi/4.1.1/../../../../arm-eabi/lib/thumb\libsysbase.a(iosupport.o)
 .bss           0x023cecf0        0x0 c:/devkitpro/devkitarm/bin/../lib/gcc/arm-eabi/4.1.1/../../../../arm-eabi/lib/thumb\libsysbase.a(close.o)
 .bss           0x023cecf0        0x0 c:/devkitpro/devkitarm/bin/../lib/gcc/arm-eabi/4.1.1/../../../../arm-eabi/lib/thumb\libsysbase.a(fstat.o)
 .bss           0x023cecf0        0x0 c:/devkitpro/devkitarm/bin/../lib/gcc/arm-eabi/4.1.1/../../../../arm-eabi/lib/thumb\libsysbase.a(lseek.o)
 .bss           0x023cecf0        0x0 c:/devkitpro/devkitarm/bin/../lib/gcc/arm-eabi/4.1.1/../../../../arm-eabi/lib/thumb\libsysbase.a(open.o)
 .bss           0x023cecf0        0x0 c:/devkitpro/devkitarm/bin/../lib/gcc/arm-eabi/4.1.1/../../../../arm-eabi/lib/thumb\libsysbase.a(read.o)
 .bss           0x023cecf0        0x4 c:/devkitpro/devkitarm/bin/../lib/gcc/arm-eabi/4.1.1/../../../../arm-eabi/lib/thumb\libsysbase.a(sbrk.o)
 .bss           0x023cecf4        0x0 c:/devkitpro/devkitarm/bin/../lib/gcc/arm-eabi/4.1.1/../../../../arm-eabi/lib/thumb\libsysbase.a(write.o)
 .bss           0x023cecf4        0x8 c:/devkitpro/devkitarm/bin/../lib/gcc/arm-eabi/4.1.1/../../../../arm-eabi/lib/thumb\libsysbase.a(malloc_vars.o)
                0x023cecf8                fake_heap_start
                0x023cecf4                fake_heap_end
 .bss           0x023cecfc        0x0 c:/devkitpro/devkitarm/bin/../lib/gcc/arm-eabi/4.1.1/../../../../arm-eabi/lib/thumb\libsysbase.a(chdir.o)
 .bss           0x023cecfc        0x0 c:/devkitpro/devkitarm/bin/../lib/gcc/arm-eabi/4.1.1/../../../../arm-eabi/lib/thumb\libsysbase.a(dir.o)
 .bss           0x023cecfc        0x0 c:/devkitpro/devkitarm/bin/../lib/gcc/arm-eabi/4.1.1/thumb/crtend.o
 .bss           0x023cecfc        0x0 c:/devkitpro/devkitarm/bin/../lib/gcc/arm-eabi/4.1.1/thumb/crtn.o
 *(COMMON)
 *fill*         0x023cecfc        0x4 00
 COMMON         0x023ced00      0xc40 NeoAudioStream.arm.o
                0x023ced00                g_jediTable
 COMMON         0x023cf940       0x74 NeoSystem.o
                0x023cf940                g_header
 COMMON         0x023cf9b4        0x8 NeoVideo.o
                0x023cf9b4                g_currentFps
                0x023cf9b8                g_frames
 COMMON         0x023cf9bc        0x4 NeoVideoSprites.arm.o
                0x023cf9bc                g_spriteCount
 COMMON         0x023cf9c0        0x4 c:/devkitpro/devkitarm/bin/../lib/gcc/arm-eabi/4.1.1/../../../../arm-eabi/lib/thumb\libg.a(lib_a-reent.o)
                0x023cf9c0                errno
                0x023cf9c4                . = ALIGN (0x4)
                0x023cf9c4                __bss_end = <code 342> (.)
                0x023cf9c4                __bss_end__ = __bss_end
                0x023cf9c4                _end = .
                0x023cf9c4                __end__ = .
                0x023cf9c4                PROVIDE (end, _end)

.stab
 *(.stab)

.stabstr
 *(.stabstr)

.stab.excl
 *(.stab.excl)

.stab.exclstr
 *(.stab.exclstr)

.stab.index
 *(.stab.index)

.stab.indexstr
 *(.stab.indexstr)

.comment        0x00000000     0x119e
 *(.comment)
 .comment       0x00000000       0x29 c:/devkitpro/devkitarm/bin/../lib/gcc/arm-eabi/4.1.1/thumb/crtbegin.o
 .comment       0x00000029       0x29 Disa.o
 .comment       0x00000052       0x29 EmuSystem.o
 .comment       0x0000007b       0x29 guiBase.o
 .comment       0x000000a4       0x29 guiButton.o
 .comment       0x000000cd       0x29 guiCheckbox.o
 .comment       0x000000f6       0x29 guiConsole.o
 .comment       0x0000011f       0x29 guiLabel.o
 .comment       0x00000148       0x29 guiMenu.o
 .comment       0x00000171       0x29 guiObject.o
 .comment       0x0000019a       0x29 guiRadioButton.o
 .comment       0x000001c3       0x29 guiRender.o
 .comment       0x000001ec       0x29 guiStatus.o
 .comment       0x00000215       0x29 LayoutDebug.o
 .comment       0x0000023e       0x29 LayoutInput.o
 .comment       0x00000267       0x29 LayoutMain.o
 .comment       0x00000290       0x29 LayoutRomSelect.o
 .comment       0x000002b9       0x29 LinearHeap.o
 .comment       0x000002e2       0x29 NeoAudioStream.arm.o
 .comment       0x0000030b       0x29 NeoConfig.o
 .comment       0x00000334       0x29 NeoCpu.o
 .comment       0x0000035d       0x29 NeoIO.o
 .comment       0x00000386       0x29 NeoMemory.o
 .comment       0x000003af       0x29 NeoProfiler.o
 .comment       0x000003d8       0x29 NeoProtection.o
 .comment       0x00000401       0x29 NeoSystem.o
 .comment       0x0000042a       0x29 NeoVideo.o
 .comment       0x00000453       0x29 NeoVideoFixed.arm.o
 .comment       0x0000047c       0x29 NeoVideoPalette.arm.o
 .comment       0x000004a5       0x29 NeoVideoSprites.arm.o
 .comment       0x000004ce       0x29 pd4990a.o
 .comment       0x000004f7       0x29 ram.o
 .comment       0x00000520       0x29 Sprintf.o
 .comment       0x00000549       0x29 template.o
 .comment       0x00000572       0x29 cache.o
 .comment       0x0000059b       0x29 directory.o
 .comment       0x000005c4       0x29 fatdir.o
 .comment       0x000005ed       0x29 fatfile.o
 .comment       0x00000616       0x29 file_allocation_table.o
 .comment       0x0000063f       0x29 filetime.o
 .comment       0x00000668       0x29 libfat.o
 .comment       0x00000691       0x29 partition.o
 .comment       0x000006ba       0x29 disc.o
 .comment       0x000006e3       0x29 io_cf_common.o
 .comment       0x0000070c       0x29 io_efa2.o
 .comment       0x00000735       0x29 io_fcsr.o
 .comment       0x0000075e       0x29 io_m3_common.o
 .comment       0x00000787       0x29 io_m3cf.o
 .comment       0x000007b0       0x29 io_m3sd.o
 .comment       0x000007d9       0x29 io_mpcf.o
 .comment       0x00000802       0x29 io_njsd.o
 .comment       0x0000082b       0x29 io_nmmc.o
 .comment       0x00000854       0x29 io_sc_common.o
 .comment       0x0000087d       0x29 io_sccf.o
 .comment       0x000008a6       0x29 io_scsd.o
 .comment       0x000008cf       0x29 io_sd_common.o
 .comment       0x000008f8       0x29 NeoIPC.o
 .comment       0x00000921       0x29 C:/devkitPro/libnds/lib\libnds9.a(keys.o)
 .comment       0x0000094a       0x29 C:/devkitPro/libnds/lib\libnds9.a(touch.o)
 .comment       0x00000973       0x29 C:/devkitPro/libnds/lib\libnds9.a(video.o)
 .comment       0x0000099c       0x29 C:/devkitPro/libnds/lib\libnds9.a(card.o)
 .comment       0x000009c5       0x29 C:/devkitPro/libnds/lib\libnds9.a(interrupts.o)
 .comment       0x000009ee       0x29 c:/devkitpro/devkitarm/bin/../lib/gcc/arm-eabi/4.1.1/../../../../arm-eabi/lib/thumb\libg.a(lib_a-ctype_.o)
 .comment       0x00000a17       0x29 c:/devkitpro/devkitarm/bin/../lib/gcc/arm-eabi/4.1.1/../../../../arm-eabi/lib/thumb\libg.a(lib_a-init.o)
 .comment       0x00000a40       0x29 c:/devkitpro/devkitarm/bin/../lib/gcc/arm-eabi/4.1.1/../../../../arm-eabi/lib/thumb\libg.a(lib_a-malloc.o)
 .comment       0x00000a69       0x29 c:/devkitpro/devkitarm/bin/../lib/gcc/arm-eabi/4.1.1/../../../../arm-eabi/lib/thumb\libg.a(lib_a-mallocr.o)
 .comment       0x00000a92       0x29 c:/devkitpro/devkitarm/bin/../lib/gcc/arm-eabi/4.1.1/../../../../arm-eabi/lib/thumb\libg.a(lib_a-memcpy.o)
 .comment       0x00000abb       0x29 c:/devkitpro/devkitarm/bin/../lib/gcc/arm-eabi/4.1.1/../../../../arm-eabi/lib/thumb\libg.a(lib_a-memmove.o)
 .comment       0x00000ae4       0x29 c:/devkitpro/devkitarm/bin/../lib/gcc/arm-eabi/4.1.1/../../../../arm-eabi/lib/thumb\libg.a(lib_a-memset.o)
 .comment       0x00000b0d       0x29 c:/devkitpro/devkitarm/bin/../lib/gcc/arm-eabi/4.1.1/../../../../arm-eabi/lib/thumb\libg.a(lib_a-mlock.o)
 .comment       0x00000b36       0x29 c:/devkitpro/devkitarm/bin/../lib/gcc/arm-eabi/4.1.1/../../../../arm-eabi/lib/thumb\libg.a(lib_a-qsort.o)
 .comment       0x00000b5f       0x29 c:/devkitpro/devkitarm/bin/../lib/gcc/arm-eabi/4.1.1/../../../../arm-eabi/lib/thumb\libg.a(lib_a-realloc.o)
 .comment       0x00000b88       0x29 c:/devkitpro/devkitarm/bin/../lib/gcc/arm-eabi/4.1.1/../../../../arm-eabi/lib/thumb\libg.a(lib_a-reallocr.o)
 .comment       0x00000bb1       0x29 c:/devkitpro/devkitarm/bin/../lib/gcc/arm-eabi/4.1.1/../../../../arm-eabi/lib/thumb\libg.a(lib_a-sbrkr.o)
 .comment       0x00000bda       0x29 c:/devkitpro/devkitarm/bin/../lib/gcc/arm-eabi/4.1.1/../../../../arm-eabi/lib/thumb\libg.a(lib_a-strcasecmp.o)
 .comment       0x00000c03       0x29 c:/devkitpro/devkitarm/bin/../lib/gcc/arm-eabi/4.1.1/../../../../arm-eabi/lib/thumb\libg.a(lib_a-strcat.o)
 .comment       0x00000c2c       0x29 c:/devkitpro/devkitarm/bin/../lib/gcc/arm-eabi/4.1.1/../../../../arm-eabi/lib/thumb\libg.a(lib_a-strchr.o)
 .comment       0x00000c55       0x29 c:/devkitpro/devkitarm/bin/../lib/gcc/arm-eabi/4.1.1/../../../../arm-eabi/lib/thumb\libg.a(lib_a-strcmp.o)
 .comment       0x00000c7e       0x29 c:/devkitpro/devkitarm/bin/../lib/gcc/arm-eabi/4.1.1/../../../../arm-eabi/lib/thumb\libg.a(lib_a-strcpy.o)
 .comment       0x00000ca7       0x29 c:/devkitpro/devkitarm/bin/../lib/gcc/arm-eabi/4.1.1/../../../../arm-eabi/lib/thumb\libg.a(lib_a-strdup.o)
 .comment       0x00000cd0       0x29 c:/devkitpro/devkitarm/bin/../lib/gcc/arm-eabi/4.1.1/../../../../arm-eabi/lib/thumb\libg.a(lib_a-strdup_r.o)
 .comment       0x00000cf9       0x29 c:/devkitpro/devkitarm/bin/../lib/gcc/arm-eabi/4.1.1/../../../../arm-eabi/lib/thumb\libg.a(lib_a-strlen.o)
 .comment       0x00000d22       0x29 c:/devkitpro/devkitarm/bin/../lib/gcc/arm-eabi/4.1.1/../../../../arm-eabi/lib/thumb\libg.a(lib_a-strncasecmp.o)
 .comment       0x00000d4b       0x29 c:/devkitpro/devkitarm/bin/../lib/gcc/arm-eabi/4.1.1/../../../../arm-eabi/lib/thumb\libg.a(lib_a-strncmp.o)
 .comment       0x00000d74       0x29 c:/devkitpro/devkitarm/bin/../lib/gcc/arm-eabi/4.1.1/../../../../arm-eabi/lib/thumb\libg.a(lib_a-strncpy.o)
 .comment       0x00000d9d       0x29 c:/devkitpro/devkitarm/bin/../lib/gcc/arm-eabi/4.1.1/../../../../arm-eabi/lib/thumb\libg.a(lib_a-strnlen.o)
 .comment       0x00000dc6       0x29 c:/devkitpro/devkitarm/bin/../lib/gcc/arm-eabi/4.1.1/../../../../arm-eabi/lib/thumb\libg.a(lib_a-strpbrk.o)
 .comment       0x00000def       0x29 c:/devkitpro/devkitarm/bin/../lib/gcc/arm-eabi/4.1.1/../../../../arm-eabi/lib/thumb\libg.a(lib_a-strrchr.o)
 .comment       0x00000e18       0x29 c:/devkitpro/devkitarm/bin/../lib/gcc/arm-eabi/4.1.1/../../../../arm-eabi/lib/thumb\libg.a(lib_a-strupr.o)
 .comment       0x00000e41       0x29 c:/devkitpro/devkitarm/bin/../lib/gcc/arm-eabi/4.1.1/../../../../arm-eabi/lib/thumb\libg.a(lib_a-sysclose.o)
 .comment       0x00000e6a       0x29 c:/devkitpro/devkitarm/bin/../lib/gcc/arm-eabi/4.1.1/../../../../arm-eabi/lib/thumb\libg.a(lib_a-sysfstat.o)
 .comment       0x00000e93       0x29 c:/devkitpro/devkitarm/bin/../lib/gcc/arm-eabi/4.1.1/../../../../arm-eabi/lib/thumb\libg.a(lib_a-syslseek.o)
 .comment       0x00000ebc       0x29 c:/devkitpro/devkitarm/bin/../lib/gcc/arm-eabi/4.1.1/../../../../arm-eabi/lib/thumb\libg.a(lib_a-sysopen.o)
 .comment       0x00000ee5       0x29 c:/devkitpro/devkitarm/bin/../lib/gcc/arm-eabi/4.1.1/../../../../arm-eabi/lib/thumb\libg.a(lib_a-sysread.o)
 .comment       0x00000f0e       0x29 c:/devkitpro/devkitarm/bin/../lib/gcc/arm-eabi/4.1.1/../../../../arm-eabi/lib/thumb\libg.a(lib_a-syswrite.o)
 .comment       0x00000f37       0x29 c:/devkitpro/devkitarm/bin/../lib/gcc/arm-eabi/4.1.1/../../../../arm-eabi/lib/thumb\libg.a(lib_a-freer.o)
 .comment       0x00000f60       0x29 c:/devkitpro/devkitarm/bin/../lib/gcc/arm-eabi/4.1.1/../../../../arm-eabi/lib/thumb\libg.a(lib_a-impure.o)
 .comment       0x00000f89       0x29 c:/devkitpro/devkitarm/bin/../lib/gcc/arm-eabi/4.1.1/../../../../arm-eabi/lib/thumb\libg.a(lib_a-reent.o)
 .comment       0x00000fb2       0x29 c:/devkitpro/devkitarm/bin/../lib/gcc/arm-eabi/4.1.1/../../../../arm-eabi/lib/thumb\libsysbase.a(iosupport.o)
 .comment       0x00000fdb       0x29 c:/devkitpro/devkitarm/bin/../lib/gcc/arm-eabi/4.1.1/../../../../arm-eabi/lib/thumb\libsysbase.a(close.o)
 .comment       0x00001004       0x29 c:/devkitpro/devkitarm/bin/../lib/gcc/arm-eabi/4.1.1/../../../../arm-eabi/lib/thumb\libsysbase.a(fstat.o)
 .comment       0x0000102d       0x29 c:/devkitpro/devkitarm/bin/../lib/gcc/arm-eabi/4.1.1/../../../../arm-eabi/lib/thumb\libsysbase.a(lseek.o)
 .comment       0x00001056       0x29 c:/devkitpro/devkitarm/bin/../lib/gcc/arm-eabi/4.1.1/../../../../arm-eabi/lib/thumb\libsysbase.a(open.o)
 .comment       0x0000107f       0x29 c:/devkitpro/devkitarm/bin/../lib/gcc/arm-eabi/4.1.1/../../../../arm-eabi/lib/thumb\libsysbase.a(read.o)
 .comment       0x000010a8       0x29 c:/devkitpro/devkitarm/bin/../lib/gcc/arm-eabi/4.1.1/../../../../arm-eabi/lib/thumb\libsysbase.a(sbrk.o)
 .comment       0x000010d1       0x29 c:/devkitpro/devkitarm/bin/../lib/gcc/arm-eabi/4.1.1/../../../../arm-eabi/lib/thumb\libsysbase.a(write.o)
 .comment       0x000010fa       0x29 c:/devkitpro/devkitarm/bin/../lib/gcc/arm-eabi/4.1.1/../../../../arm-eabi/lib/thumb\libsysbase.a(malloc_vars.o)
 .comment       0x00001123       0x29 c:/devkitpro/devkitarm/bin/../lib/gcc/arm-eabi/4.1.1/../../../../arm-eabi/lib/thumb\libsysbase.a(chdir.o)
 .comment       0x0000114c       0x29 c:/devkitpro/devkitarm/bin/../lib/gcc/arm-eabi/4.1.1/../../../../arm-eabi/lib/thumb\libsysbase.a(dir.o)
 .comment       0x00001175       0x29 c:/devkitpro/devkitarm/bin/../lib/gcc/arm-eabi/4.1.1/thumb/crtend.o

.debug
 *(.debug)

.line
 *(.line)

.debug_srcinfo
 *(.debug_srcinfo)

.debug_sfnames
 *(.debug_sfnames)

.debug_aranges  0x00000000      0x8b0
 *(.debug_aranges)
 .debug_aranges
                0x00000000       0x28 c:/devkitpro/devkitarm/bin/../lib/gcc/arm-eabi/4.1.1/thumb/crti.o
 .debug_aranges
                0x00000028       0x20 EmuSystem.o
 .debug_aranges
                0x00000048       0x20 guiBase.o
 .debug_aranges
                0x00000068       0x20 guiButton.o
 .debug_aranges
                0x00000088       0x20 guiCheckbox.o
 .debug_aranges
                0x000000a8       0x20 guiConsole.o
 .debug_aranges
                0x000000c8       0x20 guiLabel.o
 .debug_aranges
                0x000000e8       0x20 guiMenu.o
 .debug_aranges
                0x00000108       0x20 guiObject.o
 .debug_aranges
                0x00000128       0x20 guiRadioButton.o
 .debug_aranges
                0x00000148       0x20 guiRender.o
 .debug_aranges
                0x00000168       0x20 guiStatus.o
 .debug_aranges
                0x00000188       0x20 LayoutInput.o
 .debug_aranges
                0x000001a8       0x20 LayoutMain.o
 .debug_aranges
                0x000001c8       0x20 LayoutRomSelect.o
 .debug_aranges
                0x000001e8       0x20 LinearHeap.o
 .debug_aranges
                0x00000208       0x20 NeoAudioStream.arm.o
 .debug_aranges
                0x00000228       0x20 NeoConfig.o
 .debug_aranges
                0x00000248       0x20 NeoCpu.o
 .debug_aranges
                0x00000268       0x20 NeoIO.o
 .debug_aranges
                0x00000288       0x20 NeoMemory.o
 .debug_aranges
                0x000002a8       0x20 NeoProtection.o
 .debug_aranges
                0x000002c8       0x20 NeoSystem.o
 .debug_aranges
                0x000002e8       0x20 NeoVideo.o
 .debug_aranges
                0x00000308       0x20 NeoVideoFixed.arm.o
 .debug_aranges
                0x00000328       0x20 NeoVideoPalette.arm.o
 .debug_aranges
                0x00000348       0x20 NeoVideoSprites.arm.o
 .debug_aranges
                0x00000368       0x20 pd4990a.o
 .debug_aranges
                0x00000388       0x20 ram.o
 .debug_aranges
                0x000003a8       0x20 Sprintf.o
 .debug_aranges
                0x000003c8       0x20 template.o
 .debug_aranges
                0x000003e8       0x20 cache.o
 .debug_aranges
                0x00000408       0x20 directory.o
 .debug_aranges
                0x00000428       0x20 fatdir.o
 .debug_aranges
                0x00000448       0x20 fatfile.o
 .debug_aranges
                0x00000468       0x20 file_allocation_table.o
 .debug_aranges
                0x00000488       0x20 filetime.o
 .debug_aranges
                0x000004a8       0x20 libfat.o
 .debug_aranges
                0x000004c8       0x20 partition.o
 .debug_aranges
                0x000004e8       0x20 disc.o
 .debug_aranges
                0x00000508       0x20 io_cf_common.o
 .debug_aranges
                0x00000528       0x20 io_efa2.o
 .debug_aranges
                0x00000548       0x20 io_fcsr.o
 .debug_aranges
                0x00000568       0x20 io_m3_common.o
 .debug_aranges
                0x00000588       0x20 io_m3cf.o
 .debug_aranges
                0x000005a8       0x20 io_m3sd.o
 .debug_aranges
                0x000005c8       0x20 io_mpcf.o
 .debug_aranges
                0x000005e8       0x20 io_njsd.o
 .debug_aranges
                0x00000608       0x20 io_nmmc.o
 .debug_aranges
                0x00000628       0x20 io_sc_common.o
 .debug_aranges
                0x00000648       0x20 io_sccf.o
 .debug_aranges
                0x00000668       0x20 io_scsd.o
 .debug_aranges
                0x00000688       0x20 io_sd_common.o
 .debug_aranges
                0x000006a8       0x20 NeoIPC.o
 .debug_aranges
                0x000006c8       0x30 Cyclone.o
 .debug_aranges
                0x000006f8       0x20 NeoAudioStreamAsm.o
 .debug_aranges
                0x00000718       0x20 NeoCpuAsm.o
 .debug_aranges
                0x00000738       0x28 NeoIOAsm.o
 .debug_aranges
                0x00000760       0x28 NeoMemoryAsm.o
 .debug_aranges
                0x00000788       0x20 NeoVideoAsm.o
 .debug_aranges
                0x000007a8       0x20 io_dldi.o
 .debug_aranges
                0x000007c8       0x20 io_scsd_s.o
 .debug_aranges
                0x000007e8       0x20 C:/devkitPro/libnds/lib\libnds9.a(keys.o)
 .debug_aranges
                0x00000808       0x20 C:/devkitPro/libnds/lib\libnds9.a(touch.o)
 .debug_aranges
                0x00000828       0x20 C:/devkitPro/libnds/lib\libnds9.a(video.o)
 .debug_aranges
                0x00000848       0x20 C:/devkitPro/libnds/lib\libnds9.a(card.o)
 .debug_aranges
                0x00000868       0x20 C:/devkitPro/libnds/lib\libnds9.a(interrupts.o)
 .debug_aranges
                0x00000888       0x28 c:/devkitpro/devkitarm/bin/../lib/gcc/arm-eabi/4.1.1/thumb/crtn.o

.debug_pubnames
                0x00000000     0x2488
 *(.debug_pubnames)
 .debug_pubnames
                0x00000000      0x1b4 EmuSystem.o
 .debug_pubnames
                0x000001b4      0x105 guiBase.o
 .debug_pubnames
                0x000002b9       0x39 guiButton.o
 .debug_pubnames
                0x000002f2       0x55 guiCheckbox.o
 .debug_pubnames
                0x00000347       0x86 guiConsole.o
 .debug_pubnames
                0x000003cd       0x61 guiLabel.o
 .debug_pubnames
                0x0000042e       0x61 guiMenu.o
 .debug_pubnames
                0x0000048f       0xbc guiObject.o
 .debug_pubnames
                0x0000054b       0x59 guiRadioButton.o
 .debug_pubnames
                0x000005a4       0xeb guiRender.o
 .debug_pubnames
                0x0000068f       0x39 guiStatus.o
 .debug_pubnames
                0x000006c8       0x3e LayoutInput.o
 .debug_pubnames
                0x00000706       0x63 LayoutMain.o
 .debug_pubnames
                0x00000769       0x42 LayoutRomSelect.o
 .debug_pubnames
                0x000007ab       0x81 LinearHeap.o
 .debug_pubnames
                0x0000082c       0x75 NeoAudioStream.arm.o
 .debug_pubnames
                0x000008a1       0x40 NeoConfig.o
 .debug_pubnames
                0x000008e1      0x113 NeoCpu.o
 .debug_pubnames
                0x000009f4       0x6b NeoIO.o
 .debug_pubnames
                0x00000a5f      0x12f NeoMemory.o
 .debug_pubnames
                0x00000b8e       0x1c NeoProfiler.o
 .debug_pubnames
                0x00000baa       0x35 NeoProtection.o
 .debug_pubnames
                0x00000bdf      0x21f NeoSystem.o
 .debug_pubnames
                0x00000dfe       0xbd NeoVideo.o
 .debug_pubnames
                0x00000ebb       0x60 NeoVideoFixed.arm.o
 .debug_pubnames
                0x00000f1b       0x82 NeoVideoPalette.arm.o
 .debug_pubnames
                0x00000f9d       0x78 NeoVideoSprites.arm.o
 .debug_pubnames
                0x00001015       0xf6 pd4990a.o
 .debug_pubnames
                0x0000110b      0x114 ram.o
 .debug_pubnames
                0x0000121f       0x3c Sprintf.o
 .debug_pubnames
                0x0000125b       0x25 template.o
 .debug_pubnames
                0x00001280       0xe0 cache.o
 .debug_pubnames
                0x00001360      0x1a0 directory.o
 .debug_pubnames
                0x00001500       0xc6 fatdir.o
 .debug_pubnames
                0x000015c6       0x8d fatfile.o
 .debug_pubnames
                0x00001653       0x9d file_allocation_table.o
 .debug_pubnames
                0x000016f0       0x70 filetime.o
 .debug_pubnames
                0x00001760       0xb6 libfat.o
 .debug_pubnames
                0x00001816      0x129 partition.o
 .debug_pubnames
                0x0000193f       0x84 disc.o
 .debug_pubnames
                0x000019c3       0x93 io_cf_common.o
 .debug_pubnames
                0x00001a56       0x9c io_efa2.o
 .debug_pubnames
                0x00001af2      0x119 io_fcsr.o
 .debug_pubnames
                0x00001c0b       0x25 io_m3_common.o
 .debug_pubnames
                0x00001c30       0x31 io_m3cf.o
 .debug_pubnames
                0x00001c61       0xd7 io_m3sd.o
 .debug_pubnames
                0x00001d38       0x31 io_mpcf.o
 .debug_pubnames
                0x00001d69       0xd7 io_njsd.o
 .debug_pubnames
                0x00001e40       0xc5 io_nmmc.o
 .debug_pubnames
                0x00001f05       0x25 io_sc_common.o
 .debug_pubnames
                0x00001f2a       0x31 io_sccf.o
 .debug_pubnames
                0x00001f5b       0xd7 io_scsd.o
 .debug_pubnames
                0x00002032       0x3e io_sd_common.o
 .debug_pubnames
                0x00002070       0xd2 NeoIPC.o
 .debug_pubnames
                0x00002142       0x69 C:/devkitPro/libnds/lib\libnds9.a(keys.o)
 .debug_pubnames
                0x000021ab       0x22 C:/devkitPro/libnds/lib\libnds9.a(touch.o)
 .debug_pubnames
                0x000021cd       0xf1 C:/devkitPro/libnds/lib\libnds9.a(video.o)
 .debug_pubnames
                0x000022be      0x14a C:/devkitPro/libnds/lib\libnds9.a(card.o)
 .debug_pubnames
                0x00002408       0x80 C:/devkitPro/libnds/lib\libnds9.a(interrupts.o)

.debug_info     0x00000000    0x2d679
 *(.debug_info)
 .debug_info    0x00000000       0x5b c:/devkitpro/devkitarm/bin/../lib/gcc/arm-eabi/4.1.1/thumb/crti.o
 .debug_info    0x0000005b        0x0 Disa.o
 .debug_info    0x0000005b     0x12f7 EmuSystem.o
 .debug_info    0x00001352     0x14bf guiBase.o
 .debug_info    0x00002811     0x1057 guiButton.o
 .debug_info    0x00003868     0x108b guiCheckbox.o
 .debug_info    0x000048f3     0x10e0 guiConsole.o
 .debug_info    0x000059d3      0xfa9 guiLabel.o
 .debug_info    0x0000697c     0x10d2 guiMenu.o
 .debug_info    0x00007a4e     0x111f guiObject.o
 .debug_info    0x00008b6d     0x1131 guiRadioButton.o
 .debug_info    0x00009c9e     0x10b6 guiRender.o
 .debug_info    0x0000ad54      0xfa7 guiStatus.o
 .debug_info    0x0000bcfb        0x0 LayoutDebug.o
 .debug_info    0x0000bcfb     0x1340 LayoutInput.o
 .debug_info    0x0000d03b     0x18bb LayoutMain.o
 .debug_info    0x0000e8f6     0x1380 LayoutRomSelect.o
 .debug_info    0x0000fc76      0xce5 LinearHeap.o
 .debug_info    0x0001095b     0x1732 NeoAudioStream.arm.o
 .debug_info    0x0001208d      0xd83 NeoConfig.o
 .debug_info    0x00012e10      0xdc3 NeoCpu.o
 .debug_info    0x00013bd3      0xc42 NeoIO.o
 .debug_info    0x00014815     0x10d8 NeoMemory.o
 .debug_info    0x000158ed      0xb84 NeoProfiler.o
 .debug_info    0x00016471     0x122b NeoProtection.o
 .debug_info    0x0001769c     0x16e5 NeoSystem.o
 .debug_info    0x00018d81      0xfb4 NeoVideo.o
 .debug_info    0x00019d35     0x10c3 NeoVideoFixed.arm.o
 .debug_info    0x0001adf8      0xdcd NeoVideoPalette.arm.o
 .debug_info    0x0001bbc5     0x13ba NeoVideoSprites.arm.o
 .debug_info    0x0001cf7f      0xebc pd4990a.o
 .debug_info    0x0001de3b      0x58a ram.o
 .debug_info    0x0001e3c5     0x1023 Sprintf.o
 .debug_info    0x0001f3e8      0xe52 template.o
 .debug_info    0x0002023a      0x698 cache.o
 .debug_info    0x000208d2      0xfcb directory.o
 .debug_info    0x0002189d     0x1463 fatdir.o
 .debug_info    0x00022d00     0x173f fatfile.o
 .debug_info    0x0002443f      0x70b file_allocation_table.o
 .debug_info    0x00024b4a      0x4df filetime.o
 .debug_info    0x00025029     0x1079 libfat.o
 .debug_info    0x000260a2      0x8a9 partition.o
 .debug_info    0x0002694b      0x4dd disc.o
 .debug_info    0x00026e28      0x342 io_cf_common.o
 .debug_info    0x0002716a      0x47a io_efa2.o
 .debug_info    0x000275e4      0x4b5 io_fcsr.o
 .debug_info    0x00027a99      0x243 io_m3_common.o
 .debug_info    0x00027cdc      0x2b2 io_m3cf.o
 .debug_info    0x00027f8e      0x883 io_m3sd.o
 .debug_info    0x00028811      0x2b2 io_mpcf.o
 .debug_info    0x00028ac3      0x91d io_njsd.o
 .debug_info    0x000293e0      0x9cb io_nmmc.o
 .debug_info    0x00029dab       0xca io_sc_common.o
 .debug_info    0x00029e75      0x2b2 io_sccf.o
 .debug_info    0x0002a127      0x756 io_scsd.o
 .debug_info    0x0002a87d      0x2b3 io_sd_common.o
 .debug_info    0x0002ab30      0xddc NeoIPC.o
 .debug_info    0x0002b90c       0x75 Cyclone.o
 .debug_info    0x0002b981       0x87 NeoAudioStreamAsm.o
 .debug_info    0x0002ba08       0x7f NeoCpuAsm.o
 .debug_info    0x0002ba87       0x76 NeoIOAsm.o
 .debug_info    0x0002bafd       0x7a NeoMemoryAsm.o
 .debug_info    0x0002bb77       0x81 NeoVideoAsm.o
 .debug_info    0x0002bbf8       0x8c io_dldi.o
 .debug_info    0x0002bc84       0x8e io_scsd_s.o
 .debug_info    0x0002bd12      0x4ea C:/devkitPro/libnds/lib\libnds9.a(keys.o)
 .debug_info    0x0002c1fc      0x459 C:/devkitPro/libnds/lib\libnds9.a(touch.o)
 .debug_info    0x0002c655      0x579 C:/devkitPro/libnds/lib\libnds9.a(video.o)
 .debug_info    0x0002cbce      0x805 C:/devkitPro/libnds/lib\libnds9.a(card.o)
 .debug_info    0x0002d3d3      0x24b C:/devkitPro/libnds/lib\libnds9.a(interrupts.o)
 .debug_info    0x0002d61e       0x5b c:/devkitpro/devkitarm/bin/../lib/gcc/arm-eabi/4.1.1/thumb/crtn.o

.debug_abbrev   0x00000000     0x8aa8
 *(.debug_abbrev)
 .debug_abbrev  0x00000000       0x10 c:/devkitpro/devkitarm/bin/../lib/gcc/arm-eabi/4.1.1/thumb/crti.o
 .debug_abbrev  0x00000010        0x1 Disa.o
 .debug_abbrev  0x00000011      0x30f EmuSystem.o
 .debug_abbrev  0x00000320      0x3d7 guiBase.o
 .debug_abbrev  0x000006f7      0x24f guiButton.o
 .debug_abbrev  0x00000946      0x273 guiCheckbox.o
 .debug_abbrev  0x00000bb9      0x2ee guiConsole.o
 .debug_abbrev  0x00000ea7      0x296 guiLabel.o
 .debug_abbrev  0x0000113d      0x2cf guiMenu.o
 .debug_abbrev  0x0000140c      0x314 guiObject.o
 .debug_abbrev  0x00001720      0x28a guiRadioButton.o
 .debug_abbrev  0x000019aa      0x2ff guiRender.o
 .debug_abbrev  0x00001ca9      0x272 guiStatus.o
 .debug_abbrev  0x00001f1b        0x1 LayoutDebug.o
 .debug_abbrev  0x00001f1c      0x27f LayoutInput.o
 .debug_abbrev  0x0000219b      0x25c LayoutMain.o
 .debug_abbrev  0x000023f7      0x29f LayoutRomSelect.o
 .debug_abbrev  0x00002696      0x23b LinearHeap.o
 .debug_abbrev  0x000028d1      0x3f6 NeoAudioStream.arm.o
 .debug_abbrev  0x00002cc7      0x239 NeoConfig.o
 .debug_abbrev  0x00002f00      0x300 NeoCpu.o
 .debug_abbrev  0x00003200      0x1e5 NeoIO.o
 .debug_abbrev  0x000033e5      0x309 NeoMemory.o
 .debug_abbrev  0x000036ee      0x19f NeoProfiler.o
 .debug_abbrev  0x0000388d      0x33d NeoProtection.o
 .debug_abbrev  0x00003bca      0x43e NeoSystem.o
 .debug_abbrev  0x00004008      0x3bd NeoVideo.o
 .debug_abbrev  0x000043c5      0x279 NeoVideoFixed.arm.o
 .debug_abbrev  0x0000463e      0x2be NeoVideoPalette.arm.o
 .debug_abbrev  0x000048fc      0x342 NeoVideoSprites.arm.o
 .debug_abbrev  0x00004c3e      0x325 pd4990a.o
 .debug_abbrev  0x00004f63      0x2c0 ram.o
 .debug_abbrev  0x00005223      0x2f3 Sprintf.o
 .debug_abbrev  0x00005516      0x20c template.o
 .debug_abbrev  0x00005722      0x1bf cache.o
 .debug_abbrev  0x000058e1      0x306 directory.o
 .debug_abbrev  0x00005be7      0x2e6 fatdir.o
 .debug_abbrev  0x00005ecd      0x342 fatfile.o
 .debug_abbrev  0x0000620f      0x1ce file_allocation_table.o
 .debug_abbrev  0x000063dd      0x152 filetime.o
 .debug_abbrev  0x0000652f      0x1d4 libfat.o
 .debug_abbrev  0x00006703      0x270 partition.o
 .debug_abbrev  0x00006973      0x19e disc.o
 .debug_abbrev  0x00006b11      0x15b io_cf_common.o
 .debug_abbrev  0x00006c6c      0x23c io_efa2.o
 .debug_abbrev  0x00006ea8      0x19a io_fcsr.o
 .debug_abbrev  0x00007042       0xbe io_m3_common.o
 .debug_abbrev  0x00007100       0xfa io_m3cf.o
 .debug_abbrev  0x000071fa      0x2e5 io_m3sd.o
 .debug_abbrev  0x000074df       0xfa io_mpcf.o
 .debug_abbrev  0x000075d9      0x302 io_njsd.o
 .debug_abbrev  0x000078db      0x2cd io_nmmc.o
 .debug_abbrev  0x00007ba8       0x87 io_sc_common.o
 .debug_abbrev  0x00007c2f       0xfa io_sccf.o
 .debug_abbrev  0x00007d29      0x289 io_scsd.o
 .debug_abbrev  0x00007fb2      0x11e io_sd_common.o
 .debug_abbrev  0x000080d0      0x2ae NeoIPC.o
 .debug_abbrev  0x0000837e       0x10 Cyclone.o
 .debug_abbrev  0x0000838e       0x14 NeoAudioStreamAsm.o
 .debug_abbrev  0x000083a2       0x14 NeoCpuAsm.o
 .debug_abbrev  0x000083b6       0x10 NeoIOAsm.o
 .debug_abbrev  0x000083c6       0x10 NeoMemoryAsm.o
 .debug_abbrev  0x000083d6       0x14 NeoVideoAsm.o
 .debug_abbrev  0x000083ea       0x14 io_dldi.o
 .debug_abbrev  0x000083fe       0x14 io_scsd_s.o
 .debug_abbrev  0x00008412      0x173 C:/devkitPro/libnds/lib\libnds9.a(keys.o)
 .debug_abbrev  0x00008585      0x10c C:/devkitPro/libnds/lib\libnds9.a(touch.o)
 .debug_abbrev  0x00008691       0xbf C:/devkitPro/libnds/lib\libnds9.a(video.o)
 .debug_abbrev  0x00008750      0x213 C:/devkitPro/libnds/lib\libnds9.a(card.o)
 .debug_abbrev  0x00008963      0x135 C:/devkitPro/libnds/lib\libnds9.a(interrupts.o)
 .debug_abbrev  0x00008a98       0x10 c:/devkitpro/devkitarm/bin/../lib/gcc/arm-eabi/4.1.1/thumb/crtn.o

.debug_line     0x00000000    0x11f5f
 *(.debug_line)
 .debug_line    0x00000000       0x49 c:/devkitpro/devkitarm/bin/../lib/gcc/arm-eabi/4.1.1/thumb/crti.o
 .debug_line    0x00000049       0x1d Disa.o
 .debug_line    0x00000066      0x3af EmuSystem.o
 .debug_line    0x00000415      0x2e2 guiBase.o
 .debug_line    0x000006f7      0x220 guiButton.o
 .debug_line    0x00000917      0x23e guiCheckbox.o
 .debug_line    0x00000b55      0x2b3 guiConsole.o
 .debug_line    0x00000e08      0x254 guiLabel.o
 .debug_line    0x0000105c      0x24c guiMenu.o
 .debug_line    0x000012a8      0x246 guiObject.o
 .debug_line    0x000014ee      0x25c guiRadioButton.o
 .debug_line    0x0000174a      0x2ae guiRender.o
 .debug_line    0x000019f8      0x226 guiStatus.o
 .debug_line    0x00001c1e       0x1d LayoutDebug.o
 .debug_line    0x00001c3b      0x27e LayoutInput.o
 .debug_line    0x00001eb9      0x308 LayoutMain.o
 .debug_line    0x000021c1      0x28a LayoutRomSelect.o
 .debug_line    0x0000244b      0x1e5 LinearHeap.o
 .debug_line    0x00002630      0x45c NeoAudioStream.arm.o
 .debug_line    0x00002a8c      0x235 NeoConfig.o
 .debug_line    0x00002cc1      0x2c1 NeoCpu.o
 .debug_line    0x00002f82      0x1ea NeoIO.o
 .debug_line    0x0000316c      0x2cf NeoMemory.o
 .debug_line    0x0000343b      0x17c NeoProfiler.o
 .debug_line    0x000035b7      0x2e0 NeoProtection.o
 .debug_line    0x00003897      0x437 NeoSystem.o
 .debug_line    0x00003cce      0x345 NeoVideo.o
 .debug_line    0x00004013      0x2ec NeoVideoFixed.arm.o
 .debug_line    0x000042ff      0x2b0 NeoVideoPalette.arm.o
 .debug_line    0x000045af      0x424 NeoVideoSprites.arm.o
 .debug_line    0x000049d3      0x2b7 pd4990a.o
 .debug_line    0x00004c8a      0x2a2 ram.o
 .debug_line    0x00004f2c      0x2d6 Sprintf.o
 .debug_line    0x00005202      0x22d template.o
 .debug_line    0x0000542f      0x242 cache.o
 .debug_line    0x00005671      0x4c6 directory.o
 .debug_line    0x00005b37      0x37a fatdir.o
 .debug_line    0x00005eb1      0x494 fatfile.o
 .debug_line    0x00006345      0x20c file_allocation_table.o
 .debug_line    0x00006551      0x17b filetime.o
 .debug_line    0x000066cc      0x266 libfat.o
 .debug_line    0x00006932      0x2b5 partition.o
 .debug_line    0x00006be7      0x20e disc.o
 .debug_line    0x00006df5      0x1a4 io_cf_common.o
 .debug_line    0x00006f99      0x1c3 io_efa2.o
 .debug_line    0x0000715c      0x187 io_fcsr.o
 .debug_line    0x000072e3      0x109 io_m3_common.o
 .debug_line    0x000073ec      0x11c io_m3cf.o
 .debug_line    0x00007508      0x256 io_m3sd.o
 .debug_line    0x0000775e      0x11b io_mpcf.o
 .debug_line    0x00007879      0x292 io_njsd.o
 .debug_line    0x00007b0b      0x33f io_nmmc.o
 .debug_line    0x00007e4a      0x103 io_sc_common.o
 .debug_line    0x00007f4d      0x11c io_sccf.o
 .debug_line    0x00008069      0x1ee io_scsd.o
 .debug_line    0x00008257      0x16a io_sd_common.o
 .debug_line    0x000083c1      0x20c NeoIPC.o
 .debug_line    0x000085cd     0x8b74 Cyclone.o
 .debug_line    0x00011141       0x82 NeoAudioStreamAsm.o
 .debug_line    0x000111c3      0x153 NeoCpuAsm.o
 .debug_line    0x00011316      0x122 NeoIOAsm.o
 .debug_line    0x00011438      0x12d NeoMemoryAsm.o
 .debug_line    0x00011565       0x87 NeoVideoAsm.o
 .debug_line    0x000115ec       0x71 io_dldi.o
 .debug_line    0x0001165d       0x9e io_scsd_s.o
 .debug_line    0x000116fb      0x12b C:/devkitPro/libnds/lib\libnds9.a(keys.o)
 .debug_line    0x00011826      0x103 C:/devkitPro/libnds/lib\libnds9.a(touch.o)
 .debug_line    0x00011929      0x15e C:/devkitPro/libnds/lib\libnds9.a(video.o)
 .debug_line    0x00011a87      0x2fa C:/devkitPro/libnds/lib\libnds9.a(card.o)
 .debug_line    0x00011d81      0x15d C:/devkitPro/libnds/lib\libnds9.a(interrupts.o)
 .debug_line    0x00011ede       0x81 c:/devkitpro/devkitarm/bin/../lib/gcc/arm-eabi/4.1.1/thumb/crtn.o

.debug_frame    0x00000000     0x3014
 *(.debug_frame)
 .debug_frame   0x00000000      0x258 EmuSystem.o
 .debug_frame   0x00000258      0x13c guiBase.o
 .debug_frame   0x00000394       0x30 guiButton.o
 .debug_frame   0x000003c4       0x44 guiCheckbox.o
 .debug_frame   0x00000408       0x9c guiConsole.o
 .debug_frame   0x000004a4       0x60 guiLabel.o
 .debug_frame   0x00000504       0x64 guiMenu.o
 .debug_frame   0x00000568       0xd4 guiObject.o
 .debug_frame   0x0000063c       0x58 guiRadioButton.o
 .debug_frame   0x00000694      0x114 guiRender.o
 .debug_frame   0x000007a8       0x30 guiStatus.o
 .debug_frame   0x000007d8       0x9c LayoutInput.o
 .debug_frame   0x00000874      0x13c LayoutMain.o
 .debug_frame   0x000009b0       0x78 LayoutRomSelect.o
 .debug_frame   0x00000a28       0x70 LinearHeap.o
 .debug_frame   0x00000a98       0xd8 NeoAudioStream.arm.o
 .debug_frame   0x00000b70       0x48 NeoConfig.o
 .debug_frame   0x00000bb8      0x13c NeoCpu.o
 .debug_frame   0x00000cf4       0x70 NeoIO.o
 .debug_frame   0x00000d64      0x174 NeoMemory.o
 .debug_frame   0x00000ed8      0x190 NeoProtection.o
 .debug_frame   0x00001068      0x25c NeoSystem.o
 .debug_frame   0x000012c4       0xf4 NeoVideo.o
 .debug_frame   0x000013b8       0xa0 NeoVideoFixed.arm.o
 .debug_frame   0x00001458       0x90 NeoVideoPalette.arm.o
 .debug_frame   0x000014e8       0x84 NeoVideoSprites.arm.o
 .debug_frame   0x0000156c       0xf0 pd4990a.o
 .debug_frame   0x0000165c      0x1a4 ram.o
 .debug_frame   0x00001800       0x88 Sprintf.o
 .debug_frame   0x00001888       0x28 template.o
 .debug_frame   0x000018b0      0x148 cache.o
 .debug_frame   0x000019f8      0x218 directory.o
 .debug_frame   0x00001c10      0x15c fatdir.o
 .debug_frame   0x00001d6c      0x154 fatfile.o
 .debug_frame   0x00001ec0       0xc8 file_allocation_table.o
 .debug_frame   0x00001f88       0x5c filetime.o
 .debug_frame   0x00001fe4       0xbc libfat.o
 .debug_frame   0x000020a0      0x134 partition.o
 .debug_frame   0x000021d4       0x64 disc.o
 .debug_frame   0x00002238       0xb4 io_cf_common.o
 .debug_frame   0x000022ec       0xdc io_efa2.o
 .debug_frame   0x000023c8       0xa8 io_fcsr.o
 .debug_frame   0x00002470       0x28 io_m3_common.o
 .debug_frame   0x00002498       0x28 io_m3cf.o
 .debug_frame   0x000024c0      0x17c io_m3sd.o
 .debug_frame   0x0000263c       0x28 io_mpcf.o
 .debug_frame   0x00002664      0x19c io_njsd.o
 .debug_frame   0x00002800      0x124 io_nmmc.o
 .debug_frame   0x00002924       0x20 io_sc_common.o
 .debug_frame   0x00002944       0x28 io_sccf.o
 .debug_frame   0x0000296c      0x160 io_scsd.o
 .debug_frame   0x00002acc       0x70 io_sd_common.o
 .debug_frame   0x00002b3c       0xf0 NeoIPC.o
 .debug_frame   0x00002c2c       0x80 C:/devkitPro/libnds/lib\libnds9.a(keys.o)
 .debug_frame   0x00002cac       0x28 C:/devkitPro/libnds/lib\libnds9.a(touch.o)
 .debug_frame   0x00002cd4       0xdc C:/devkitPro/libnds/lib\libnds9.a(video.o)
 .debug_frame   0x00002db0      0x1b4 C:/devkitPro/libnds/lib\libnds9.a(card.o)
 .debug_frame   0x00002f64       0xb0 C:/devkitPro/libnds/lib\libnds9.a(interrupts.o)

.debug_str      0x00000000     0x693f
 *(.debug_str)
 .debug_str     0x00000000      0x954 EmuSystem.o
                                0xa51 (size before relaxing)
 .debug_str     0x00000954      0x48b guiBase.o
                                0xc0a (size before relaxing)
 .debug_str     0x00000ddf      0x17a guiButton.o
                                0xae0 (size before relaxing)
 .debug_str     0x00000f59       0x98 guiCheckbox.o
                                0xb04 (size before relaxing)
 .debug_str     0x00000ff1      0x135 guiConsole.o
                                0xa7a (size before relaxing)
 .debug_str     0x00001126       0x6c guiLabel.o
                                0x9fe (size before relaxing)
 .debug_str     0x00001192       0xbb guiMenu.o
                                0xa55 (size before relaxing)
 .debug_str     0x0000124d      0x106 guiObject.o
                                0xa2c (size before relaxing)
 .debug_str     0x00001353       0xb7 guiRadioButton.o
                                0xb50 (size before relaxing)
 .debug_str     0x0000140a      0x144 guiRender.o
                                0x8db (size before relaxing)
 .debug_str     0x0000154e       0xd6 guiStatus.o
                                0xa20 (size before relaxing)
 .debug_str     0x00001624      0x152 LayoutInput.o
                                0xb84 (size before relaxing)
 .debug_str     0x00001776      0x32e LayoutMain.o
                                0xe5a (size before relaxing)
 .debug_str     0x00001aa4      0x12d LayoutRomSelect.o
                                0xc1d (size before relaxing)
 .debug_str     0x00001bd1       0x8b LinearHeap.o
                                0x7ad (size before relaxing)
 .debug_str     0x00001c5c      0x3de NeoAudioStream.arm.o
                                0xb46 (size before relaxing)
 .debug_str     0x0000203a       0xf7 NeoConfig.o
                                0x837 (size before relaxing)
 .debug_str     0x00002131      0x10f NeoCpu.o
                                0x803 (size before relaxing)
 .debug_str     0x00002240       0x81 NeoIO.o
                                0x76f (size before relaxing)
 .debug_str     0x000022c1      0x25a NeoMemory.o
                                0x981 (size before relaxing)
 .debug_str     0x0000251b       0x35 NeoProfiler.o
                                0x71c (size before relaxing)
 .debug_str     0x00002550      0x20e NeoProtection.o
                                0x98f (size before relaxing)
 .debug_str     0x0000275e      0x3ca NeoSystem.o
                                0xca0 (size before relaxing)
 .debug_str     0x00002b28      0x1d6 NeoVideo.o
                                0x918 (size before relaxing)
 .debug_str     0x00002cfe      0x16e NeoVideoFixed.arm.o
                                0x993 (size before relaxing)
 .debug_str     0x00002e6c       0xe2 NeoVideoPalette.arm.o
                                0x81e (size before relaxing)
 .debug_str     0x00002f4e      0x370 NeoVideoSprites.arm.o
                                0xb9d (size before relaxing)
 .debug_str     0x000032be      0x205 pd4990a.o
                                0x90c (size before relaxing)
 .debug_str     0x000034c3      0x16d ram.o
                                0x368 (size before relaxing)
 .debug_str     0x00003630       0xe0 Sprintf.o
                                0x808 (size before relaxing)
 .debug_str     0x00003710       0x49 template.o
                                0x96a (size before relaxing)
 .debug_str     0x00003759      0x2bb cache.o
                                0x3ef (size before relaxing)
 .debug_str     0x00003a14      0x54a directory.o
                                0x8cc (size before relaxing)
 .debug_str     0x00003f5e      0x524 fatdir.o
                                0xa62 (size before relaxing)
 .debug_str     0x00004482      0x1e7 fatfile.o
                                0xb32 (size before relaxing)
 .debug_str     0x00004669      0x10c file_allocation_table.o
                                0x4d4 (size before relaxing)
 .debug_str     0x00004775      0x184 filetime.o
                                0x318 (size before relaxing)
 .debug_str     0x000048f9      0x160 libfat.o
                                0x867 (size before relaxing)
 .debug_str     0x00004a59      0x1a8 partition.o
                                0x603 (size before relaxing)
 .debug_str     0x00004c01      0x107 disc.o
                                0x40d (size before relaxing)
 .debug_str     0x00004d08       0xfe io_cf_common.o
                                0x232 (size before relaxing)
 .debug_str     0x00004e06      0x152 io_efa2.o
                                0x374 (size before relaxing)
 .debug_str     0x00004f58      0x17d io_fcsr.o
                                0x39c (size before relaxing)
 .debug_str     0x000050d5       0x65 io_m3_common.o
                                0x160 (size before relaxing)
 .debug_str     0x0000513a       0x5e io_m3cf.o
                                0x2a7 (size before relaxing)
 .debug_str     0x00005198      0x232 io_m3sd.o
                                0x495 (size before relaxing)
 .debug_str     0x000053ca       0x5e io_mpcf.o
                                0x2a7 (size before relaxing)
 .debug_str     0x00005428      0x1f9 io_njsd.o
                                0x534 (size before relaxing)
 .debug_str     0x00005621      0x1a5 io_nmmc.o
                                0x3f6 (size before relaxing)
 .debug_str     0x000057c6       0x62 io_sc_common.o
                                0x14e (size before relaxing)
 .debug_str     0x00005828       0x5e io_sccf.o
                                0x2a7 (size before relaxing)
 .debug_str     0x00005886      0x1b3 io_scsd.o
                                0x43c (size before relaxing)
 .debug_str     0x00005a39       0xce io_sd_common.o
                                0x222 (size before relaxing)
 .debug_str     0x00005b07      0x1bd NeoIPC.o
                                0x8d5 (size before relaxing)
 .debug_str     0x00005cc4       0xc3 C:/devkitPro/libnds/lib\libnds9.a(keys.o)
                                0x312 (size before relaxing)
 .debug_str     0x00005d87       0x46 C:/devkitPro/libnds/lib\libnds9.a(touch.o)
                                0x2c1 (size before relaxing)
 .debug_str     0x00005dcd      0x932 C:/devkitPro/libnds/lib\libnds9.a(video.o)
                                0xa1e (size before relaxing)
 .debug_str     0x000066ff      0x18a C:/devkitPro/libnds/lib\libnds9.a(card.o)
                                0x30e (size before relaxing)
 .debug_str     0x00006889       0xb6 C:/devkitPro/libnds/lib\libnds9.a(interrupts.o)
                                0x1b4 (size before relaxing)

.debug_loc      0x00000000     0xbc03
 *(.debug_loc)
 .debug_loc     0x00000000      0x6d2 EmuSystem.o
 .debug_loc     0x000006d2      0x463 guiBase.o
 .debug_loc     0x00000b35      0x116 guiButton.o
 .debug_loc     0x00000c4b      0x16a guiCheckbox.o
 .debug_loc     0x00000db5      0x2b5 guiConsole.o
 .debug_loc     0x0000106a      0x15e guiLabel.o
 .debug_loc     0x000011c8      0x201 guiMenu.o
 .debug_loc     0x000013c9      0x39d guiObject.o
 .debug_loc     0x00001766      0x1ed guiRadioButton.o
 .debug_loc     0x00001953      0x4aa guiRender.o
 .debug_loc     0x00001dfd      0x116 guiStatus.o
 .debug_loc     0x00001f13      0x405 LayoutInput.o
 .debug_loc     0x00002318      0x84a LayoutMain.o
 .debug_loc     0x00002b62      0x346 LayoutRomSelect.o
 .debug_loc     0x00002ea8       0x95 LinearHeap.o
 .debug_loc     0x00002f3d      0x882 NeoAudioStream.arm.o
 .debug_loc     0x000037bf       0x88 NeoConfig.o
 .debug_loc     0x00003847      0x181 NeoCpu.o
 .debug_loc     0x000039c8      0x172 NeoIO.o
 .debug_loc     0x00003b3a      0x461 NeoMemory.o
 .debug_loc     0x00003f9b      0x51e NeoProtection.o
 .debug_loc     0x000044b9      0x727 NeoSystem.o
 .debug_loc     0x00004be0      0x1dd NeoVideo.o
 .debug_loc     0x00004dbd      0x185 NeoVideoFixed.arm.o
 .debug_loc     0x00004f42      0x116 NeoVideoPalette.arm.o
 .debug_loc     0x00005058      0x244 NeoVideoSprites.arm.o
 .debug_loc     0x0000529c      0x186 pd4990a.o
 .debug_loc     0x00005422      0x21a ram.o
 .debug_loc     0x0000563c      0x5fd Sprintf.o
 .debug_loc     0x00005c39       0x1f template.o
 .debug_loc     0x00005c58      0x6b1 cache.o
 .debug_loc     0x00006309      0xc4a directory.o
 .debug_loc     0x00006f53      0x71e fatdir.o
 .debug_loc     0x00007671      0xab4 fatfile.o
 .debug_loc     0x00008125      0x5a6 file_allocation_table.o
 .debug_loc     0x000086cb       0xac filetime.o
 .debug_loc     0x00008777      0x200 libfat.o
 .debug_loc     0x00008977      0x480 partition.o
 .debug_loc     0x00008df7       0xcd disc.o
 .debug_loc     0x00008ec4      0x359 io_cf_common.o
 .debug_loc     0x0000921d      0x167 io_efa2.o
 .debug_loc     0x00009384      0x23d io_fcsr.o
 .debug_loc     0x000095c1       0x32 io_m3_common.o
 .debug_loc     0x000095f3       0x2b io_m3cf.o
 .debug_loc     0x0000961e      0x602 io_m3sd.o
 .debug_loc     0x00009c20       0x2b io_mpcf.o
 .debug_loc     0x00009c4b      0x705 io_njsd.o
 .debug_loc     0x0000a350      0x39d io_nmmc.o
 .debug_loc     0x0000a6ed       0x2b io_sccf.o
 .debug_loc     0x0000a718      0x5f7 io_scsd.o
 .debug_loc     0x0000ad0f      0x258 io_sd_common.o
 .debug_loc     0x0000af67      0x236 NeoIPC.o
 .debug_loc     0x0000b19d       0x3e C:/devkitPro/libnds/lib\libnds9.a(keys.o)
 .debug_loc     0x0000b1db       0x1f C:/devkitPro/libnds/lib\libnds9.a(touch.o)
 .debug_loc     0x0000b1fa      0x129 C:/devkitPro/libnds/lib\libnds9.a(video.o)
 .debug_loc     0x0000b323      0x7ab C:/devkitPro/libnds/lib\libnds9.a(card.o)
 .debug_loc     0x0000bace      0x135 C:/devkitPro/libnds/lib\libnds9.a(interrupts.o)

.debug_macinfo
 *(.debug_macinfo)

.debug_weaknames
 *(.debug_weaknames)

.debug_funcnames
 *(.debug_funcnames)

.debug_typenames
 *(.debug_typenames)

.debug_varnames
 *(.debug_varnames)

.stack          0x00080000        0x0
                0x00080000                _stack = .
 *(.stack)
LOAD c:/devkitpro/devkitarm/bin/../lib/gcc/arm-eabi/4.1.1/../../../../arm-eabi/lib/thumb/ds_arm9_crt0.o
LOAD c:/devkitpro/devkitarm/bin/../lib/gcc/arm-eabi/4.1.1/thumb/crti.o
LOAD c:/devkitpro/devkitarm/bin/../lib/gcc/arm-eabi/4.1.1/thumb/crtbegin.o
LOAD gui.bin.o
LOAD Disa.o
LOAD EmuSystem.o
LOAD guiBase.o
LOAD guiButton.o
LOAD guiCheckbox.o
LOAD guiConsole.o
LOAD guiLabel.o
LOAD guiMenu.o
LOAD guiObject.o
LOAD guiRadioButton.o
LOAD guiRender.o
LOAD guiStatus.o
LOAD LayoutDebug.o
LOAD LayoutInput.o
LOAD LayoutMain.o
LOAD LayoutRomSelect.o
LOAD LinearHeap.o
LOAD NeoAudioStream.arm.o
LOAD NeoConfig.o
LOAD NeoCpu.o
LOAD NeoIO.o
LOAD NeoMemory.o
LOAD NeoProfiler.o
LOAD NeoProtection.o
LOAD NeoSystem.o
LOAD NeoVideo.o
LOAD NeoVideoFixed.arm.o
LOAD NeoVideoPalette.arm.o
LOAD NeoVideoSprites.arm.o
LOAD pd4990a.o
LOAD ram.o
LOAD Sprintf.o
LOAD template.o
LOAD cache.o
LOAD directory.o
LOAD fatdir.o
LOAD fatfile.o
LOAD file_allocation_table.o
LOAD filetime.o
LOAD libfat.o
LOAD partition.o
LOAD disc.o
LOAD io_cf_common.o
LOAD io_efa2.o
LOAD io_fcsr.o
LOAD io_m3_common.o
LOAD io_m3cf.o
LOAD io_m3sd.o
LOAD io_mpcf.o
LOAD io_njsd.o
LOAD io_nmmc.o
LOAD io_sc_common.o
LOAD io_sccf.o
LOAD io_scsd.o
LOAD io_sd_common.o
LOAD NeoIPC.o
LOAD Cyclone.o
LOAD NeoAudioStreamAsm.o
LOAD NeoCpuAsm.o
LOAD NeoIOAsm.o
LOAD NeoMemoryAsm.o
LOAD NeoVideoAsm.o
LOAD io_dldi.o
LOAD io_scsd_s.o
LOAD C:/devkitPro/libnds/lib\libnds9.a
START GROUP
LOAD c:/devkitpro/devkitarm/bin/../lib/gcc/arm-eabi/4.1.1/thumb\libgcc.a
LOAD c:/devkitpro/devkitarm/bin/../lib/gcc/arm-eabi/4.1.1/../../../../arm-eabi/lib/thumb\libg.a
LOAD c:/devkitpro/devkitarm/bin/../lib/gcc/arm-eabi/4.1.1/../../../../arm-eabi/lib/thumb\libc.a
END GROUP
START GROUP
LOAD c:/devkitpro/devkitarm/bin/../lib/gcc/arm-eabi/4.1.1/../../../../arm-eabi/lib/thumb\libsysbase.a
LOAD c:/devkitpro/devkitarm/bin/../lib/gcc/arm-eabi/4.1.1/../../../../arm-eabi/lib/thumb\libc.a
END GROUP
LOAD c:/devkitpro/devkitarm/bin/../lib/gcc/arm-eabi/4.1.1/thumb/crtend.o
LOAD c:/devkitpro/devkitarm/bin/../lib/gcc/arm-eabi/4.1.1/thumb/crtn.o
OUTPUT(C:/Users/GRX/NeoDS-GBMacro/arm9/NeoDS-GBMacro.arm9.elf elf32-littlearm)

.ARM.attributes
                0x00000000       0x10
 .ARM.attributes
                0x00000000       0x1e c:/devkitpro/devkitarm/bin/../lib/gcc/arm-eabi/4.1.1/../../../../arm-eabi/lib/thumb/ds_arm9_crt0.o
 .ARM.attributes
                0x0000001e       0x1e c:/devkitpro/devkitarm/bin/../lib/gcc/arm-eabi/4.1.1/thumb/crti.o
 .ARM.attributes
                0x0000003c       0x1e c:/devkitpro/devkitarm/bin/../lib/gcc/arm-eabi/4.1.1/thumb/crtbegin.o
 .ARM.attributes
                0x0000005a       0x10 gui.bin.o
 .ARM.attributes
                0x0000006a       0x17 Disa.o
 .ARM.attributes
                0x00000081       0x19 EmuSystem.o
 .ARM.attributes
                0x0000009a       0x19 guiBase.o
 .ARM.attributes
                0x000000b3       0x19 guiButton.o
 .ARM.attributes
                0x000000cc       0x19 guiCheckbox.o
 .ARM.attributes
                0x000000e5       0x19 guiConsole.o
 .ARM.attributes
                0x000000fe       0x19 guiLabel.o
 .ARM.attributes
                0x00000117       0x19 guiMenu.o
 .ARM.attributes
                0x00000130       0x19 guiObject.o
 .ARM.attributes
                0x00000149       0x19 guiRadioButton.o
 .ARM.attributes
                0x00000162       0x19 guiRender.o
 .ARM.attributes
                0x0000017b       0x19 guiStatus.o
 .ARM.attributes
                0x00000194       0x17 LayoutDebug.o
 .ARM.attributes
                0x000001ab       0x19 LayoutInput.o
 .ARM.attributes
                0x000001c4       0x19 LayoutMain.o
 .ARM.attributes
                0x000001dd       0x19 LayoutRomSelect.o
 .ARM.attributes
                0x000001f6       0x19 LinearHeap.o
 .ARM.attributes
                0x0000020f       0x19 NeoAudioStream.arm.o
 .ARM.attributes
                0x00000228       0x19 NeoConfig.o
 .ARM.attributes
                0x00000241       0x19 NeoCpu.o
 .ARM.attributes
                0x0000025a       0x19 NeoIO.o
 .ARM.attributes
                0x00000273       0x19 NeoMemory.o
 .ARM.attributes
                0x0000028c       0x17 NeoProfiler.o
 .ARM.attributes
                0x000002a3       0x19 NeoProtection.o
 .ARM.attributes
                0x000002bc       0x19 NeoSystem.o
 .ARM.attributes
                0x000002d5       0x19 NeoVideo.o
 .ARM.attributes
                0x000002ee       0x19 NeoVideoFixed.arm.o
 .ARM.attributes
                0x00000307       0x19 NeoVideoPalette.arm.o
 .ARM.attributes
                0x00000320       0x19 NeoVideoSprites.arm.o
 .ARM.attributes
                0x00000339       0x19 pd4990a.o
 .ARM.attributes
                0x00000352       0x19 ram.o
 .ARM.attributes
                0x0000036b       0x19 Sprintf.o
 .ARM.attributes
                0x00000384       0x19 template.o
 .ARM.attributes
                0x0000039d       0x19 cache.o
 .ARM.attributes
                0x000003b6       0x19 directory.o
 .ARM.attributes
                0x000003cf       0x19 fatdir.o
 .ARM.attributes
                0x000003e8       0x19 fatfile.o
 .ARM.attributes
                0x00000401       0x19 file_allocation_table.o
 .ARM.attributes
                0x0000041a       0x19 filetime.o
 .ARM.attributes
                0x00000433       0x19 libfat.o
 .ARM.attributes
                0x0000044c       0x19 partition.o
 .ARM.attributes
                0x00000465       0x19 disc.o
 .ARM.attributes
                0x0000047e       0x19 io_cf_common.o
 .ARM.attributes
                0x00000497       0x19 io_efa2.o
 .ARM.attributes
                0x000004b0       0x19 io_fcsr.o
 .ARM.attributes
                0x000004c9       0x19 io_m3_common.o
 .ARM.attributes
                0x000004e2       0x19 io_m3cf.o
 .ARM.attributes
                0x000004fb       0x19 io_m3sd.o
 .ARM.attributes
                0x00000514       0x19 io_mpcf.o
 .ARM.attributes
                0x0000052d       0x19 io_njsd.o
 .ARM.attributes
                0x00000546       0x19 io_nmmc.o
 .ARM.attributes
                0x0000055f       0x19 io_sc_common.o
 .ARM.attributes
                0x00000578       0x19 io_sccf.o
 .ARM.attributes
                0x00000591       0x19 io_scsd.o
 .ARM.attributes
                0x000005aa       0x19 io_sd_common.o
 .ARM.attributes
                0x000005c3       0x19 NeoIPC.o
 .ARM.attributes
                0x000005dc       0x19 Cyclone.o
 .ARM.attributes
                0x000005f5       0x19 NeoAudioStreamAsm.o
 .ARM.attributes
                0x0000060e       0x19 NeoCpuAsm.o
 .ARM.attributes
                0x00000627       0x19 NeoIOAsm.o
 .ARM.attributes
                0x00000640       0x19 NeoMemoryAsm.o
 .ARM.attributes
                0x00000659       0x19 NeoVideoAsm.o
 .ARM.attributes
                0x00000672       0x19 io_dldi.o
 .ARM.attributes
                0x0000068b       0x19 io_scsd_s.o
 .ARM.attributes
                0x000006a4       0x19 C:/devkitPro/libnds/lib\libnds9.a(keys.o)
 .ARM.attributes
                0x000006bd       0x19 C:/devkitPro/libnds/lib\libnds9.a(touch.o)
 .ARM.attributes
                0x000006d6       0x19 C:/devkitPro/libnds/lib\libnds9.a(video.o)
 .ARM.attributes
                0x000006ef       0x19 C:/devkitPro/libnds/lib\libnds9.a(card.o)
 .ARM.attributes
                0x00000708       0x19 C:/devkitPro/libnds/lib\libnds9.a(interrupts.o)
 .ARM.attributes
                0x00000721       0x19 C:/devkitPro/libnds/lib\libnds9.a(dcache.o)
 .ARM.attributes
                0x0000073a       0x19 C:/devkitPro/libnds/lib\libnds9.a(biosCalls.o)
 .ARM.attributes
                0x00000753       0x19 C:/devkitPro/libnds/lib\libnds9.a(interruptDispatcher.o)
 .ARM.attributes
                0x0000076c       0x1e c:/devkitpro/devkitarm/bin/../lib/gcc/arm-eabi/4.1.1/thumb\libgcc.a(_udivsi3.o)
 .ARM.attributes
                0x0000078a       0x1e c:/devkitpro/devkitarm/bin/../lib/gcc/arm-eabi/4.1.1/thumb\libgcc.a(_divsi3.o)
 .ARM.attributes
                0x000007a8       0x1e c:/devkitpro/devkitarm/bin/../lib/gcc/arm-eabi/4.1.1/thumb\libgcc.a(_dvmd_tls.o)
 .ARM.attributes
                0x000007c6       0x1e c:/devkitpro/devkitarm/bin/../lib/gcc/arm-eabi/4.1.1/thumb\libgcc.a(_call_via_rX.o)
 .ARM.attributes
                0x000007e4       0x1c c:/devkitpro/devkitarm/bin/../lib/gcc/arm-eabi/4.1.1/../../../../arm-eabi/lib/thumb\libg.a(lib_a-ctype_.o)
 .ARM.attributes
                0x00000800       0x1e c:/devkitpro/devkitarm/bin/../lib/gcc/arm-eabi/4.1.1/../../../../arm-eabi/lib/thumb\libg.a(lib_a-init.o)
 .ARM.attributes
                0x0000081e       0x1e c:/devkitpro/devkitarm/bin/../lib/gcc/arm-eabi/4.1.1/../../../../arm-eabi/lib/thumb\libg.a(lib_a-malloc.o)
 .ARM.attributes
                0x0000083c       0x1e c:/devkitpro/devkitarm/bin/../lib/gcc/arm-eabi/4.1.1/../../../../arm-eabi/lib/thumb\libg.a(lib_a-mallocr.o)
 .ARM.attributes
                0x0000085a       0x1e c:/devkitpro/devkitarm/bin/../lib/gcc/arm-eabi/4.1.1/../../../../arm-eabi/lib/thumb\libg.a(lib_a-memcpy.o)
 .ARM.attributes
                0x00000878       0x1e c:/devkitpro/devkitarm/bin/../lib/gcc/arm-eabi/4.1.1/../../../../arm-eabi/lib/thumb\libg.a(lib_a-memmove.o)
 .ARM.attributes
                0x00000896       0x1e c:/devkitpro/devkitarm/bin/../lib/gcc/arm-eabi/4.1.1/../../../../arm-eabi/lib/thumb\libg.a(lib_a-memset.o)
 .ARM.attributes
                0x000008b4       0x1e c:/devkitpro/devkitarm/bin/../lib/gcc/arm-eabi/4.1.1/../../../../arm-eabi/lib/thumb\libg.a(lib_a-mlock.o)
 .ARM.attributes
                0x000008d2       0x1e c:/devkitpro/devkitarm/bin/../lib/gcc/arm-eabi/4.1.1/../../../../arm-eabi/lib/thumb\libg.a(lib_a-qsort.o)
 .ARM.attributes
                0x000008f0       0x1e c:/devkitpro/devkitarm/bin/../lib/gcc/arm-eabi/4.1.1/../../../../arm-eabi/lib/thumb\libg.a(lib_a-realloc.o)
 .ARM.attributes
                0x0000090e       0x1e c:/devkitpro/devkitarm/bin/../lib/gcc/arm-eabi/4.1.1/../../../../arm-eabi/lib/thumb\libg.a(lib_a-reallocr.o)
 .ARM.attributes
                0x0000092c       0x1e c:/devkitpro/devkitarm/bin/../lib/gcc/arm-eabi/4.1.1/../../../../arm-eabi/lib/thumb\libg.a(lib_a-sbrkr.o)
 .ARM.attributes
                0x0000094a       0x1e c:/devkitpro/devkitarm/bin/../lib/gcc/arm-eabi/4.1.1/../../../../arm-eabi/lib/thumb\libg.a(lib_a-strcasecmp.o)
 .ARM.attributes
                0x00000968       0x1e c:/devkitpro/devkitarm/bin/../lib/gcc/arm-eabi/4.1.1/../../../../arm-eabi/lib/thumb\libg.a(lib_a-strcat.o)
 .ARM.attributes
                0x00000986       0x1e c:/devkitpro/devkitarm/bin/../lib/gcc/arm-eabi/4.1.1/../../../../arm-eabi/lib/thumb\libg.a(lib_a-strchr.o)
 .ARM.attributes
                0x000009a4       0x1e c:/devkitpro/devkitarm/bin/../lib/gcc/arm-eabi/4.1.1/../../../../arm-eabi/lib/thumb\libg.a(lib_a-strcmp.o)
 .ARM.attributes
                0x000009c2       0x1e c:/devkitpro/devkitarm/bin/../lib/gcc/arm-eabi/4.1.1/../../../../arm-eabi/lib/thumb\libg.a(lib_a-strcpy.o)
 .ARM.attributes
                0x000009e0       0x1e c:/devkitpro/devkitarm/bin/../lib/gcc/arm-eabi/4.1.1/../../../../arm-eabi/lib/thumb\libg.a(lib_a-strdup.o)
 .ARM.attributes
                0x000009fe       0x1e c:/devkitpro/devkitarm/bin/../lib/gcc/arm-eabi/4.1.1/../../../../arm-eabi/lib/thumb\libg.a(lib_a-strdup_r.o)
 .ARM.attributes
                0x00000a1c       0x1e c:/devkitpro/devkitarm/bin/../lib/gcc/arm-eabi/4.1.1/../../../../arm-eabi/lib/thumb\libg.a(lib_a-strlen.o)
 .ARM.attributes
                0x00000a3a       0x1e c:/devkitpro/devkitarm/bin/../lib/gcc/arm-eabi/4.1.1/../../../../arm-eabi/lib/thumb\libg.a(lib_a-strncasecmp.o)
 .ARM.attributes
                0x00000a58       0x1e c:/devkitpro/devkitarm/bin/../lib/gcc/arm-eabi/4.1.1/../../../../arm-eabi/lib/thumb\libg.a(lib_a-strncmp.o)
 .ARM.attributes
                0x00000a76       0x1e c:/devkitpro/devkitarm/bin/../lib/gcc/arm-eabi/4.1.1/../../../../arm-eabi/lib/thumb\libg.a(lib_a-strncpy.o)
 .ARM.attributes
                0x00000a94       0x1e c:/devkitpro/devkitarm/bin/../lib/gcc/arm-eabi/4.1.1/../../../../arm-eabi/lib/thumb\libg.a(lib_a-strnlen.o)
 .ARM.attributes
                0x00000ab2       0x1e c:/devkitpro/devkitarm/bin/../lib/gcc/arm-eabi/4.1.1/../../../../arm-eabi/lib/thumb\libg.a(lib_a-strpbrk.o)
 .ARM.attributes
                0x00000ad0       0x1e c:/devkitpro/devkitarm/bin/../lib/gcc/arm-eabi/4.1.1/../../../../arm-eabi/lib/thumb\libg.a(lib_a-strrchr.o)
 .ARM.attributes
                0x00000aee       0x1e c:/devkitpro/devkitarm/bin/../lib/gcc/arm-eabi/4.1.1/../../../../arm-eabi/lib/thumb\libg.a(lib_a-strupr.o)
 .ARM.attributes
                0x00000b0c       0x1e c:/devkitpro/devkitarm/bin/../lib/gcc/arm-eabi/4.1.1/../../../../arm-eabi/lib/thumb\libg.a(lib_a-sysclose.o)
 .ARM.attributes
                0x00000b2a       0x1e c:/devkitpro/devkitarm/bin/../lib/gcc/arm-eabi/4.1.1/../../../../arm-eabi/lib/thumb\libg.a(lib_a-sysfstat.o)
 .ARM.attributes
                0x00000b48       0x1e c:/devkitpro/devkitarm/bin/../lib/gcc/arm-eabi/4.1.1/../../../../arm-eabi/lib/thumb\libg.a(lib_a-syslseek.o)
 .ARM.attributes
                0x00000b66       0x1e c:/devkitpro/devkitarm/bin/../lib/gcc/arm-eabi/4.1.1/../../../../arm-eabi/lib/thumb\libg.a(lib_a-sysopen.o)
 .ARM.attributes
                0x00000b84       0x1e c:/devkitpro/devkitarm/bin/../lib/gcc/arm-eabi/4.1.1/../../../../arm-eabi/lib/thumb\libg.a(lib_a-sysread.o)
 .ARM.attributes
                0x00000ba2       0x1e c:/devkitpro/devkitarm/bin/../lib/gcc/arm-eabi/4.1.1/../../../../arm-eabi/lib/thumb\libg.a(lib_a-syswrite.o)
 .ARM.attributes
                0x00000bc0       0x1e c:/devkitpro/devkitarm/bin/../lib/gcc/arm-eabi/4.1.1/../../../../arm-eabi/lib/thumb\libg.a(lib_a-freer.o)
 .ARM.attributes
                0x00000bde       0x1c c:/devkitpro/devkitarm/bin/../lib/gcc/arm-eabi/4.1.1/../../../../arm-eabi/lib/thumb\libg.a(lib_a-impure.o)
 .ARM.attributes
                0x00000bfa       0x1e c:/devkitpro/devkitarm/bin/../lib/gcc/arm-eabi/4.1.1/../../../../arm-eabi/lib/thumb\libg.a(lib_a-reent.o)
 .ARM.attributes
                0x00000c18       0x1e c:/devkitpro/devkitarm/bin/../lib/gcc/arm-eabi/4.1.1/../../../../arm-eabi/lib/thumb\libsysbase.a(iosupport.o)
 .ARM.attributes
                0x00000c36       0x1e c:/devkitpro/devkitarm/bin/../lib/gcc/arm-eabi/4.1.1/../../../../arm-eabi/lib/thumb\libsysbase.a(close.o)
 .ARM.attributes
                0x00000c54       0x1e c:/devkitpro/devkitarm/bin/../lib/gcc/arm-eabi/4.1.1/../../../../arm-eabi/lib/thumb\libsysbase.a(fstat.o)
 .ARM.attributes
                0x00000c72       0x1e c:/devkitpro/devkitarm/bin/../lib/gcc/arm-eabi/4.1.1/../../../../arm-eabi/lib/thumb\libsysbase.a(lseek.o)
 .ARM.attributes
                0x00000c90       0x1e c:/devkitpro/devkitarm/bin/../lib/gcc/arm-eabi/4.1.1/../../../../arm-eabi/lib/thumb\libsysbase.a(open.o)
 .ARM.attributes
                0x00000cae       0x1e c:/devkitpro/devkitarm/bin/../lib/gcc/arm-eabi/4.1.1/../../../../arm-eabi/lib/thumb\libsysbase.a(read.o)
 .ARM.attributes
                0x00000ccc       0x1e c:/devkitpro/devkitarm/bin/../lib/gcc/arm-eabi/4.1.1/../../../../arm-eabi/lib/thumb\libsysbase.a(sbrk.o)
 .ARM.attributes
                0x00000cea       0x1e c:/devkitpro/devkitarm/bin/../lib/gcc/arm-eabi/4.1.1/../../../../arm-eabi/lib/thumb\libsysbase.a(write.o)
 .ARM.attributes
                0x00000d08       0x1c c:/devkitpro/devkitarm/bin/../lib/gcc/arm-eabi/4.1.1/../../../../arm-eabi/lib/thumb\libsysbase.a(malloc_vars.o)
 .ARM.attributes
                0x00000d24       0x1e c:/devkitpro/devkitarm/bin/../lib/gcc/arm-eabi/4.1.1/../../../../arm-eabi/lib/thumb\libsysbase.a(chdir.o)
 .ARM.attributes
                0x00000d42       0x1e c:/devkitpro/devkitarm/bin/../lib/gcc/arm-eabi/4.1.1/../../../../arm-eabi/lib/thumb\libsysbase.a(dir.o)
 .ARM.attributes
                0x00000d60       0x1c c:/devkitpro/devkitarm/bin/../lib/gcc/arm-eabi/4.1.1/thumb/crtend.o
 .ARM.attributes
                0x00000d7c       0x1e c:/devkitpro/devkitarm/bin/../lib/gcc/arm-eabi/4.1.1/thumb/crtn.o

.debug_ranges   0x00000000      0xdd8
 .debug_ranges  0x00000000       0x20 EmuSystem.o
 .debug_ranges  0x00000020       0x78 guiBase.o
 .debug_ranges  0x00000098       0x20 guiConsole.o
 .debug_ranges  0x000000b8       0x18 guiMenu.o
 .debug_ranges  0x000000d0       0x18 guiRender.o
 .debug_ranges  0x000000e8       0x18 LayoutInput.o
 .debug_ranges  0x00000100       0x18 LayoutRomSelect.o
 .debug_ranges  0x00000118      0x1c0 NeoAudioStream.arm.o
 .debug_ranges  0x000002d8       0x20 NeoConfig.o
 .debug_ranges  0x000002f8       0xa8 NeoProtection.o
 .debug_ranges  0x000003a0       0x78 NeoSystem.o
 .debug_ranges  0x00000418       0x78 NeoVideo.o
 .debug_ranges  0x00000490       0x60 NeoVideoFixed.arm.o
 .debug_ranges  0x000004f0       0x78 NeoVideoPalette.arm.o
 .debug_ranges  0x00000568       0xd8 NeoVideoSprites.arm.o
 .debug_ranges  0x00000640       0x50 pd4990a.o
 .debug_ranges  0x00000690       0x38 ram.o
 .debug_ranges  0x000006c8       0x80 Sprintf.o
 .debug_ranges  0x00000748       0xa0 directory.o
 .debug_ranges  0x000007e8       0xc8 fatfile.o
 .debug_ranges  0x000008b0       0x18 partition.o
 .debug_ranges  0x000008c8       0x60 disc.o
 .debug_ranges  0x00000928       0xc8 io_efa2.o
 .debug_ranges  0x000009f0       0xa0 io_m3_common.o
 .debug_ranges  0x00000a90       0x50 io_m3sd.o
 .debug_ranges  0x00000ae0       0x50 io_njsd.o
 .debug_ranges  0x00000b30      0x228 io_nmmc.o
 .debug_ranges  0x00000d58       0x18 io_scsd.o
 .debug_ranges  0x00000d70       0x68 C:/devkitPro/libnds/lib\libnds9.a(card.o)
