	.file	"NeoAudioStream.arm.c"
	.text
.Ltext0:
	.align	2
	.type	neoAudioCommand, %function
neoAudioCommand:
.LFB114:
	.file 1 "C:/Users/GRX/NeoDS-GBMacro/arm9/source/NeoAudioStream.arm.c"
	.loc 1 491 0
	@ args = 0, pretend = 0, frame = 0
	@ frame_needed = 0, uses_anonymous_args = 0
	@ link register save eliminated.
.LVL0:
	.loc 1 493 0
	mov	r3, #12
	mla	r2, r0, r3, r7
	.loc 1 495 0
	ldr	r3, [r1, #0]
	.loc 1 491 0
	@ lr needed for prologue
	.loc 1 495 0
	sub	r3, r3, #1
	.loc 1 493 0
	add	r2, r2, #220
.LVL1:
	.loc 1 495 0
	cmp	r3, #3
	ldrls	pc, [pc, r3, asl #2]
	b	.L13
	.p2align 2
.L7:
	.word	.L3
	.word	.L4
	.word	.L5
	.word	.L6
.L4:
	.loc 1 497 0
	ldr	r3, [r1, #4]
	.loc 1 499 0
	cmp	r0, #5
	.loc 1 497 0
	bic	r3, r3, #-2147483648
	str	r3, [r2, #0]
	.loc 1 498 0
	mov	ip, #0
	.loc 1 504 0
	movhi	r3, #127	@ movhi
	strhih	r3, [r2, #10]	@ movhi
	.loc 1 498 0
	strh	ip, [r2, #8]	@ movhi
	.loc 1 506 0
	ldrhi	r3, [r1, #4]
	.loc 1 507 0
	strhi	ip, [r7, #308]
	.loc 1 506 0
	strhi	r3, [r7, #304]
	.loc 1 501 0
	strlsh	ip, [r2, #10]	@ movhi
	.loc 1 509 0
	ldr	r3, [r2, #0]
	ldr	r2, .L14
.LVL2:
	ldr	r2, [r2, #-247]
	cmp	r3, r2
	bxcs	lr
	.loc 1 511 0
	ldr	r3, [r7, #316]
	mov	r2, #1
	orr	r3, r3, r2, asl r0
	str	r3, [r7, #316]
	.loc 1 512 0
	ldr	r3, .L14+4
	mov	r2, #0
	str	r2, [r3, r0, asl #2]
	bx	lr
.LVL3:
.L5:
	.loc 1 516 0
	ldr	r3, [r1, #4]
	str	r3, [r2, #4]
	bx	lr
.L3:
	.loc 1 519 0
	ldr	r3, [r7, #316]
	mov	r2, #1
.LVL4:
	bic	r3, r3, r2, asl r0
	str	r3, [r7, #316]
	bx	lr
.LVL5:
.L6:
	.loc 1 523 0
	cmp	r0, #6
	bxne	lr
	.loc 1 526 0
	ldr	r3, [r1, #4]
	str	r3, [r7, #312]
.L13:
	bx	lr
.L15:
	.align	2
.L14:
	.word	41940223
	.word	g_zeroFill
.LFE114:
	.size	neoAudioCommand, .-neoAudioCommand
	.align	2
	.type	neoAudioStream, %function
neoAudioStream:
.LFB110:
	.loc 1 217 0
	@ args = 0, pretend = 0, frame = 0
	@ frame_needed = 0, uses_anonymous_args = 0
.LVL6:
	stmfd	sp!, {r4, r5, r6, r8, r9, sl, fp, lr}
.LCFI0:
	.loc 1 227 0
	ldr	sl, .L23
	.loc 1 218 0
	mov	r6, r0, lsr #10
.LVL7:
	.loc 1 227 0
	ldrb	r3, [sl, r6]	@ zero_extendqisi2
	.loc 1 220 0
	mov	r8, r0, asl #22
.LVL8:
	.loc 1 228 0
	cmp	r3, #255
	.loc 1 227 0
	mov	r5, r3
.LVL9:
	.loc 1 230 0
	ldr	r9, .L23+4
	.loc 1 239 0
	mov	r2, r6, asl #10
	mov	r0, #4
.LVL10:
	mov	r3, #1024
	.loc 1 217 0
	mov	fp, r1
	.loc 1 220 0
	mov	r8, r8, lsr #22
	.loc 1 228 0
	bne	.L19
.LVL11:
	.loc 1 230 0
	ldrb	r5, [r9, #1002]	@ zero_extendqisi2
	.loc 1 239 0
	ldr	r1, .L23+8
	.loc 1 234 0
	mov	lr, r5, asl #2
	ldrh	r4, [lr, r9]
	mvn	ip, #0
	.loc 1 239 0
	add	r1, r1, r5, asl #10
	.loc 1 234 0
	strb	ip, [sl, r4]
	.loc 1 237 0
	strh	r6, [lr, r9]	@ movhi
	.loc 1 236 0
	strb	r5, [sl, r6]
	.loc 1 239 0
	bl	neoSystemReadRegion
.LVL12:
.L19:
.LBB4:
.LBB5:
	.loc 1 198 0
	ldr	r2, .L23+4
	.loc 1 212 0
	and	lr, r5, #255
	.loc 1 198 0
	add	r0, r2, r5, asl #2
.LVL13:
	.loc 1 206 0
	ldrb	ip, [r0, #2]	@ zero_extendqisi2
	ldrb	r1, [r0, #3]	@ zero_extendqisi2
	add	r3, r2, ip, asl #2
	strb	r1, [r3, #3]
	.loc 1 210 0
	ldrb	r1, [r2, #1007]	@ zero_extendqisi2
	.loc 1 207 0
	ldrb	r3, [r0, #3]	@ zero_extendqisi2
	.loc 1 210 0
	strb	r1, [r0, #3]
	.loc 1 212 0
	ldrb	r1, [r2, #1007]	@ zero_extendqisi2
	.loc 1 207 0
	add	r3, r2, r3, asl #2
	strb	ip, [r3, #2]
	.loc 1 212 0
	add	r1, r2, r1, asl #2
	.loc 1 211 0
	mvn	r3, #4
	strb	r3, [r0, #2]
	.loc 1 213 0
	strb	lr, [r2, #1007]
	.loc 1 212 0
	strb	lr, [r1, #2]
.LBE5:
.LBE4:
	.loc 1 250 0
	ldr	r3, [fp, #0]
	.loc 1 254 0
	ldr	r0, .L23+8
.LVL14:
	.loc 1 250 0
	rsb	r6, r8, #1024
.LVL15:
	.loc 1 251 0
	add	r4, r8, r5, asl #10
	.loc 1 250 0
	cmp	r3, r6
	.loc 1 254 0
	add	r0, r4, r0
	.loc 1 251 0
	strhi	r6, [fp, #0]
	.loc 1 254 0
	ldmfd	sp!, {r4, r5, r6, r8, r9, sl, fp, pc}
.L24:
	.align	2
.L23:
	.word	g_adpcmTable
	.word	g_adpcmEntry
	.word	g_adpcmCache
.LFE110:
	.size	neoAudioStream, .-neoAudioStream
	.align	2
	.type	neoAudioStreamAdpcm, %function
neoAudioStreamAdpcm:
.LFB113:
	.loc 1 484 0
	@ args = 0, pretend = 0, frame = 64
	@ frame_needed = 0, uses_anonymous_args = 0
.LVL16:
	stmfd	sp!, {r4, r5, r6, r8, r9, sl, fp, lr}
.LCFI1:
	.loc 1 486 0
	cmp	r0, #5
	.loc 1 484 0
	mov	fp, r1
	sub	sp, sp, #64
.LCFI2:
	.loc 1 484 0
	mov	r6, r0
	mov	r1, r2
.LVL17:
	.loc 1 486 0
	bhi	.L26
.LVL18:
.LBB19:
.LBB20:
	.loc 1 264 0
	cmp	r2, #0
	beq	.L86
.LVL19:
	.loc 1 270 0
	mov	r3, #1
	mov	r3, r3, asl r0
	str	r3, [sp, #12]
	ldr	r3, [r7, #316]
	ldr	r0, [sp, #12]
.LBE20:
.LBE19:
	.loc 1 486 0
	mov	r4, r1
.LVL20:
.LBB21:
.LBB22:
	.loc 1 270 0
	tst	r0, r3
	beq	.L30
.LVL21:
	.loc 1 258 0
	mov	r3, #12
	mul	r3, r6, r3
	add	r3, r3, #216
	add	r3, r7, r3
	add	sl, r3, #4
.LVL22:
.LBB23:
	.loc 1 271 0
	ldr	r2, [sl, #4]
	.loc 1 275 0
	ldrsh	r1, [sl, #10]
.LVL23:
	.loc 1 271 0
	bic	r5, r2, #-16777216
.LVL24:
	.loc 1 275 0
	ldr	r2, .L94
	.loc 1 274 0
	ldr	r8, [r3, #4]
.LVL25:
	.loc 1 273 0
	ldrsh	r9, [sl, #8]
.LVL26:
	.loc 1 275 0
	add	r1, r1, r2
	.loc 1 271 0
	bic	r5, r5, #15728640
	.loc 1 275 0
	str	r1, [sp, #8]
.LVL27:
	b	.L32
.LVL28:
.L33:
.LBB24:
	.loc 1 280 0
	bic	r2, r8, #-16777216
	bic	r2, r2, #15728640
	cmp	r2, r5
	.loc 1 278 0
	str	r4, [sp, #60]
	.loc 1 280 0
	bhi	.L34
	add	r3, r2, r4
	cmp	r3, r5
	bcc	.L34
	.loc 1 281 0
	rsb	r3, r2, r5
	.loc 1 286 0
	cmp	r3, #0
	.loc 1 281 0
	str	r3, [sp, #60]
	.loc 1 286 0
	ble	.L37
.L34:
.LBE24:
.LBE23:
.LBE22:
	.loc 1 287 0
	mov	r0, r8
	add	r1, sp, #60
	bl	neoAudioStream
.LVL29:
.LBB25:
.LBB26:
.LBB27:
.LBB28:
	.loc 1 292 0
	ldr	lr, [sp, #60]
.LVL30:
.LBE28:
.LBE27:
.LBE26:
.LBE25:
	.loc 1 287 0
	str	r0, [sp, #4]
.LBB29:
.LBB30:
.LBB31:
.LBB32:
	.loc 1 292 0
	add	r8, r8, lr
	mov	r0, #0
	mov	ip, lr
.LVL31:
	b	.L38
.L39:
.LBB33:
	.loc 1 296 0
	ldr	r3, [sp, #4]
	.loc 1 299 0
	ldr	r2, [sp, #8]
	.loc 1 296 0
	ldrb	r1, [r0, r3]	@ zero_extendqisi2
.LVL32:
.LBE33:
	.loc 1 295 0
	add	r0, r0, #1
.LBB34:
	.loc 1 299 0
	and	r3, r1, #240
	ldr	r3, [r2, r3, lsr #2]
.LVL33:
	.loc 1 304 0
	and	r1, r1, #15
.LVL34:
	.loc 1 300 0
	mov	r2, r3, asl #16
	add	r2, r9, r2, asr #16
.LVL35:
	.loc 1 304 0
	ldr	r9, .L94
.LVL36:
	.loc 1 302 0
	strh	r2, [fp, #0]	@ movhi
	.loc 1 304 0
	add	r1, r9, r1, asl #2
	ldr	r1, [r1, r3, asr #16]
.LVL37:
	.loc 1 305 0
	mov	r3, r1, asl #16
.LVL38:
	add	r9, r2, r3, asr #16
.LVL39:
	.loc 1 306 0
	ldr	r2, .L94
.LVL40:
	.loc 1 307 0
	strh	r9, [fp, #2]	@ movhi
	.loc 1 306 0
	add	r1, r2, r1, asr #16
.LVL41:
	str	r1, [sp, #8]
	.loc 1 307 0
	add	fp, fp, #4
.L38:
.LBE34:
	.loc 1 295 0
	cmp	ip, #0
	sub	ip, ip, #1
	bgt	.L39
	.loc 1 293 0
	rsb	r4, lr, r4
.L37:
.LBE32:
	.loc 1 311 0
	bic	r3, r8, #-16777216
	bic	r3, r3, #15728640
	cmp	r3, r5
	beq	.L88
.L32:
.LBE31:
	.loc 1 277 0
	cmp	r4, #0
	bgt	.L33
.L42:
	.loc 1 319 0
	ldr	r3, .L94+4
	mov	r2, r4, asl #1
	mov	r1, fp
	str	r2, [r3, r6, asl #2]
	b	.L43
.L44:
	.loc 1 321 0
	mov	r3, #0	@ movhi
	strh	r3, [r1, #-4]	@ movhi
	.loc 1 322 0
	strh	r3, [r1, #-2]	@ movhi
.L43:
	.loc 1 320 0
	cmp	r4, #0
	add	r1, r1, #4
	sub	r4, r4, #1
	bgt	.L44
	.loc 1 325 0
	ldr	ip, [sp, #8]
.LVL42:
	ldr	r0, .L94
	.loc 1 326 0
	str	r8, [sl, #0]
	.loc 1 325 0
	rsb	r3, r0, ip
	.loc 1 324 0
	strh	r9, [sl, #8]	@ movhi
	.loc 1 325 0
	strh	r3, [sl, #10]	@ movhi
	b	.L86
.LVL43:
.L88:
.LBB35:
	.loc 1 312 0
	ldr	r3, [r7, #316]
	ldr	ip, [sp, #12]
.LVL44:
	.loc 1 313 0
	ldr	r2, .L94+8
	.loc 1 312 0
	bic	r3, r3, ip
	str	r3, [r7, #316]
	.loc 1 313 0
	add	r2, r6, r2
	mov	r3, #1
	strb	r3, [r2, #-117]
	b	.L42
.LVL45:
.L30:
.LBE35:
.LBE30:
	.loc 1 327 0
	ldr	r0, .L94+4
	ldr	r2, [r0, r6, asl #2]
	cmp	r2, #2048
	bcs	.L86
	.loc 1 328 0
	add	r3, r2, r1, asl #1
	mov	r1, fp
.LVL46:
	str	r3, [r0, r6, asl #2]
	b	.L47
.L48:
	.loc 1 330 0
	mov	r0, #0	@ movhi
	strh	r0, [r1, #-4]	@ movhi
	.loc 1 331 0
	strh	r0, [r1, #-2]	@ movhi
.L47:
	.loc 1 329 0
	cmp	r4, #0
	add	r1, r1, #4
	sub	r4, r4, #1
	bgt	.L48
	b	.L86
.LVL47:
.L26:
.LBE29:
.LBE21:
.LBB36:
.LBB37:
	.loc 1 344 0
	cmp	r2, #0
	beq	.L86
.LVL48:
	.loc 1 350 0
	ldr	r3, [r7, #316]
.LBE37:
.LBE36:
	.loc 1 487 0
	mov	sl, r2
.LVL49:
.LBB38:
.LBB39:
	.loc 1 350 0
	tst	r3, #64
	beq	.L50
	.loc 1 340 0
	add	r2, r7, #292
.LVL50:
.LBB40:
	.loc 1 359 0
	ldr	r1, [r7, #312]
.LVL51:
	.loc 1 360 0
	ldr	r5, [r7, #308]
.LVL52:
.LBE40:
	.loc 1 340 0
	str	r2, [sp, #44]
.LVL53:
.LBB41:
	.loc 1 351 0
	ldr	r9, [sp, #44]
	.loc 1 359 0
	str	r1, [sp, #28]
.LVL54:
	.loc 1 351 0
	ldr	r3, [r9, #4]
	.loc 1 363 0
	mov	r2, r1
	.loc 1 351 0
	bic	r3, r3, #-16777216
	.loc 1 352 0
	ldr	r1, [r7, #304]
	.loc 1 351 0
	str	r3, [sp, #40]
.LVL55:
	.loc 1 353 0
	ldr	r3, .L94+12
	.loc 1 363 0
	mla	r2, sl, r2, r5
	.loc 1 353 0
	ldr	r3, [r3, #20]
	.loc 1 355 0
	ldrsh	ip, [r9, #8]
	.loc 1 353 0
	str	r3, [sp, #32]
.LVL56:
	.loc 1 365 0
	ldr	r3, .L94+16
	.loc 1 351 0
	ldr	r0, [sp, #40]
	.loc 1 363 0
	mov	r2, r2, lsr #16
	.loc 1 365 0
	ldr	r3, [r3, #0]
	.loc 1 357 0
	ldrsh	r4, [r9, #10]
.LVL57:
	.loc 1 358 0
	ldr	r6, [r7, #292]
.LVL58:
	.loc 1 351 0
	bic	r0, r0, #15728640
	.loc 1 352 0
	mov	r1, r1, lsr #31
	.loc 1 363 0
	add	r2, r2, #1
	.loc 1 365 0
	mov	r8, ip
.LVL59:
	.loc 1 355 0
	str	ip, [sp, #52]
.LVL60:
	.loc 1 365 0
	str	r3, [sp, #20]
.LVL61:
	.loc 1 351 0
	str	r0, [sp, #40]
	.loc 1 352 0
	str	r1, [sp, #36]
.LVL62:
	.loc 1 363 0
	str	r2, [sp, #24]
.LVL63:
	b	.L93
.LVL64:
.L53:
.LBB42:
	.loc 1 376 0
	bic	r2, r6, #-16777216
	ldr	r1, [sp, #40]
	bic	r2, r2, #15728640
	.loc 1 374 0
	ldr	r3, [sp, #24]
	.loc 1 376 0
	cmp	r2, r1
	.loc 1 374 0
	str	r3, [sp, #60]
	.loc 1 376 0
	bhi	.L54
	add	r3, r2, r3
	cmp	r3, r1
	bcc	.L54
	.loc 1 377 0
	rsb	r3, r2, r1
	.loc 1 382 0
	cmp	r3, #0
	.loc 1 377 0
	str	r3, [sp, #60]
	.loc 1 382 0
	ble	.L57
.L54:
.LBE42:
.LBE41:
.LBE39:
	.loc 1 383 0
	ldr	ip, [sp, #32]
	add	r1, sp, #60
	add	r0, ip, r6
	bl	neoAudioStream
.LVL65:
	str	r0, [sp, #16]
.LBB43:
.LBB44:
.LBB45:
.LBB46:
	.loc 1 388 0
	ldr	r0, [sp, #60]
.LVL66:
	mov	r1, #0
	mov	lr, r0
.LVL67:
	str	r1, [sp, #48]
	b	.L58
.LVL68:
.L59:
.LBB47:
	.loc 1 389 0
	ldr	r2, [sp, #48]
	ldr	r3, [sp, #16]
.LVL69:
	ldrb	r9, [r2, r3]	@ zero_extendqisi2
.LVL70:
	.loc 1 392 0
	ldr	r3, .L94+20
	.loc 1 391 0
	mov	r2, r9, lsr #4
.LVL71:
	.loc 1 392 0
	ldrsb	r1, [r3, r2]
	.loc 1 393 0
	ldr	r3, .L94+24
	ldrb	r2, [r3, r2]	@ zero_extendqisi2
.LVL72:
	.loc 1 392 0
	mul	r3, r4, r1
	.loc 1 393 0
	mul	r1, r2, r4
	.loc 1 392 0
	cmp	r3, #0
	add	r2, r3, #7
	movlt	r3, r2
	.loc 1 393 0
	cmp	r1, #0
	add	r2, r1, #63
	movlt	r1, r2
	ldr	r2, .L94+28
	.loc 1 392 0
	add	r3, r8, r3, asr #3
.LVL73:
	.loc 1 393 0
	cmp	r3, r2
	movlt	r3, r2
.LVL74:
	ldr	r2, .L94+32
	mov	ip, r1, asr #6
.LVL75:
	cmp	r3, r2
	movlt	r4, r3
	movge	r4, r2
.LVL76:
	.loc 1 396 0
	cmp	ip, #24576
	movgt	ip, #24576
	bgt	.L62
	.loc 1 397 0
	cmp	ip, #127
	movlt	ip, #127
.L62:
	.loc 1 401 0
	ldr	r3, .L94+20
.LVL77:
	.loc 1 400 0
	and	r2, r9, #15
.LVL78:
	.loc 1 401 0
	ldrsb	r1, [r3, r2]
	.loc 1 402 0
	ldr	r3, .L94+24
	.loc 1 398 0
	ldr	r9, [sp, #20]
.LVL79:
	.loc 1 402 0
	ldrb	r2, [r3, r2]	@ zero_extendqisi2
.LVL80:
	.loc 1 401 0
	mul	r3, ip, r1
	.loc 1 402 0
	mul	r1, r2, ip
	.loc 1 401 0
	cmp	r3, #0
	add	r2, r3, #7
	movlt	r3, r2
	.loc 1 402 0
	cmp	r1, #0
	add	r2, r1, #63
	movlt	r1, r2
	ldr	r2, .L94+28
	.loc 1 401 0
	add	r3, r4, r3, asr #3
.LVL81:
	.loc 1 402 0
	cmp	r3, r2
	movlt	r3, r2
.LVL82:
	ldr	r2, .L94+32
	.loc 1 398 0
	strh	r4, [r9, #0]	@ movhi
	.loc 1 402 0
	mov	r4, r1, asr #6
.LVL83:
	cmp	r3, r2
	movlt	r8, r3
	movge	r8, r2
	.loc 1 405 0
	cmp	r4, #24576
	movgt	r4, #24576
	bgt	.L66
	.loc 1 406 0
	cmp	r4, #127
	movlt	r4, #127
.L66:
	.loc 1 407 0
	ldr	ip, [sp, #20]
.LVL84:
.LBE47:
	.loc 1 388 0
	ldr	r1, [sp, #48]
.LBB48:
	.loc 1 407 0
	strh	r8, [ip, #2]	@ movhi
.LBE48:
	.loc 1 388 0
	add	r1, r1, #1
.LBB49:
	.loc 1 407 0
	add	ip, ip, #4
.LBE49:
	.loc 1 388 0
	sub	lr, lr, #1
.LBB50:
	.loc 1 407 0
	str	ip, [sp, #20]
.LBE50:
	.loc 1 388 0
	str	r1, [sp, #48]
.L58:
	cmp	lr, #0
	bgt	.L59
	.loc 1 411 0
	ldr	r2, [sp, #24]
	.loc 1 410 0
	add	r6, r6, r0
	.loc 1 411 0
	rsb	r2, r0, r2
	str	r2, [sp, #24]
.L57:
.LBE46:
	.loc 1 414 0
	bic	r3, r6, #-16777216
.LVL85:
	ldr	r9, [sp, #40]
	bic	r3, r3, #15728640
	cmp	r3, r9
	bne	.L93
	.loc 1 416 0
	ldr	ip, [sp, #36]
	cmp	ip, #0
	.loc 1 418 0
	ldrne	r3, [r7, #304]
	movne	r8, #0
	bicne	r6, r3, #-2147483648
	movne	r4, #127
	bne	.L93
.L70:
	.loc 1 424 0
	ldr	r3, [r7, #316]
	.loc 1 425 0
	mov	r2, #1
	.loc 1 424 0
	bic	r3, r3, #64
	str	r3, [r7, #316]
	.loc 1 425 0
	ldr	r3, .L94+8
	strb	r2, [r3, #-111]
	b	.L72
.L93:
.LBE45:
	.loc 1 373 0
	ldr	r0, [sp, #24]
.LVL86:
	cmp	r0, #0
	bgt	.L53
.LVL87:
.L72:
	ldr	r3, [sp, #20]
	mov	r2, #0
.LVL88:
	b	.L73
.L74:
	.loc 1 436 0
	mov	r1, #0	@ movhi
	strh	r1, [r3, #-4]	@ movhi
	.loc 1 437 0
	strh	r1, [r3, #-2]	@ movhi
.L73:
	.loc 1 435 0
	ldr	r9, [sp, #24]
	add	r3, r3, #4
	cmp	r2, r9
	add	r2, r2, #1
	blt	.L74
	.loc 1 442 0
	ldr	r3, .L94+16
	ldr	r3, [r3, #0]
.LVL89:
	b	.L76
.LVL90:
.L77:
	.loc 1 447 0
	cmp	r2, r0
	.loc 1 450 0
	ldrgth	ip, [r3, #0]
	.loc 1 452 0
	movgt	r2, r2, asl #16
	.loc 1 451 0
	addgt	r3, r3, r1, asl #1
	.loc 1 455 0
	ldr	r1, [sp, #28]
	.loc 1 452 0
	movgt	r2, r2, lsr #16
	.loc 1 455 0
	add	r5, r2, r1
	.loc 1 450 0
	strgt	ip, [sp, #52]
	.loc 1 456 0
	cmp	r5, r0
	.loc 1 459 0
	ldrgth	ip, [r3, #0]
	.loc 1 454 0
	ldr	r9, [sp, #52]
	.loc 1 459 0
	strgt	ip, [sp, #52]
	.loc 1 463 0
	ldr	r0, [sp, #52]
	.loc 1 460 0
	mov	r2, r5, asr #16
.LVL91:
	.loc 1 461 0
	movgt	r5, r5, asl #16
	.loc 1 454 0
	strh	r9, [fp, #0]	@ movhi
	.loc 1 463 0
	strh	r0, [fp, #2]	@ movhi
	.loc 1 461 0
	movgt	r5, r5, lsr #16
	.loc 1 460 0
	addgt	r3, r3, r2, asl #1
	.loc 1 463 0
	add	fp, fp, #4
.LVL92:
.L76:
	.loc 1 446 0
	ldr	r1, [sp, #28]
	.loc 1 445 0
	cmp	sl, #0
	.loc 1 446 0
	add	r2, r5, r1
.LVL93:
	.loc 1 447 0
	ldr	r0, .L94+36
.LVL94:
	.loc 1 445 0
	sub	sl, sl, #1
	.loc 1 451 0
	mov	r1, r2, asr #16
	.loc 1 445 0
	bgt	.L77
	.loc 1 469 0
	ldr	r2, [sp, #44]
.LVL95:
	.loc 1 467 0
	ldr	r3, [sp, #52]
.LVL96:
	.loc 1 469 0
	str	r6, [r2, #0]
	.loc 1 467 0
	strh	r3, [r2, #8]	@ movhi
	.loc 1 468 0
	strh	r4, [r2, #10]	@ movhi
	.loc 1 470 0
	str	r5, [r7, #308]
	b	.L86
.LVL97:
.L50:
.LBE44:
	.loc 1 471 0
	ldr	r2, .L94+4
.LVL98:
	ldr	r3, [r2, #24]
	cmp	r3, #2048
	bcs	.L86
.LVL99:
.LBB51:
	.loc 1 473 0
	add	r3, r3, r1, asl #1
	mov	r1, fp
	str	r3, [r2, #24]
	b	.L84
.L85:
	.loc 1 475 0
	mov	r9, #0	@ movhi
	strh	r9, [r1, #-4]	@ movhi
	.loc 1 476 0
	strh	r9, [r1, #-2]	@ movhi
.L84:
	.loc 1 474 0
	cmp	sl, #0
	add	r1, r1, #4
	sub	sl, sl, #1
	bgt	.L85
.LVL100:
.L86:
.LBE51:
.LBE43:
.LBE38:
	.loc 1 488 0
	add	sp, sp, #64
	ldmfd	sp!, {r4, r5, r6, r8, r9, sl, fp, pc}
.L95:
	.align	2
.L94:
	.word	g_jediTable
	.word	g_zeroFill
	.word	41940223
	.word	g_header
	.word	g_adpcmbBuffer
	.word	g_adpcmbTable1
	.word	g_adpcmbTable2
	.word	-32768
	.word	32767
	.word	65535
.LFE113:
	.size	neoAudioStreamAdpcm, .-neoAudioStreamAdpcm
	.align	2
	.global	neoAudioStreamProcess
	.type	neoAudioStreamProcess, %function
neoAudioStreamProcess:
.LFB117:
	.loc 1 656 0
	@ args = 0, pretend = 0, frame = 64
	@ frame_needed = 0, uses_anonymous_args = 0
	stmfd	sp!, {r4, r5, r6, r8, r9, sl, fp, lr}
.LCFI3:
	.loc 1 661 0
	ldr	r2, .L145
	.loc 1 656 0
	sub	sp, sp, #64
.LCFI4:
	.loc 1 661 0
	ldrb	r3, [r2, #-110]	@ zero_extendqisi2
	cmp	r3, #0
	beq	.L136
	.loc 1 662 0
	mov	ip, #0
.LVL101:
	mov	r0, r2
	mov	r1, ip
.L99:
	.loc 1 666 0
	ldrh	r2, [r0, #-171]
	add	r3, sp, #36
	strh	r2, [r1, r3]	@ movhi
	.loc 1 667 0
	ldrh	r2, [r0, #-157]
	.loc 1 665 0
	add	ip, ip, #1
	.loc 1 667 0
	add	r3, sp, #50
	.loc 1 665 0
	cmp	ip, #7
	.loc 1 667 0
	strh	r2, [r1, r3]	@ movhi
	.loc 1 665 0
	add	r0, r0, #2
	add	r1, r1, #2
	bne	.L99
	.loc 1 673 0
	ldr	r3, .L145
	ldrh	r2, [r3, #-119]
	.loc 1 675 0
	ldr	r3, .L145+4
	.loc 1 673 0
	str	r2, [sp, #12]
.LVL102:
	.loc 1 675 0
	ldrh	sl, [r3, #0]
	cmp	sl, r2
	beq	.L136
	ldr	r3, .L145+8
	mov	r8, sl
	ldr	r3, [r3, #0]
	str	r3, [sp, #20]
	b	.L102
.LVL103:
.L103:
	ldr	r1, .L145+12
	mov	fp, #0
	str	r1, [sp, #4]
	mov	r9, fp
.L104:
	.loc 1 681 0
	add	r3, sp, #50
	ldrsh	r4, [r9, r3]
.LBB58:
.LBB59:
	.loc 1 535 0
	add	r3, sp, #36
	ldrsh	r3, [r9, r3]
	.loc 1 538 0
	mov	r6, #0
	subs	r5, r3, r4
	addmi	r5, r5, #32
	b	.L107
.LVL104:
.L108:
.LBB60:
	.loc 1 550 0
	ldr	r3, [sp, #4]
	ldr	r2, [r3, #0]
	mov	r3, #12
	mla	r3, r4, r3, r2
.LVL105:
	.loc 1 556 0
	mov	r1, r3
	.loc 1 551 0
	ldrh	r3, [r3, #8]
.LVL106:
	cmp	r3, r8
	bne	.L109
	.loc 1 558 0
	add	r4, r4, #1
	.loc 1 556 0
	bl	neoAudioCommand
.LVL107:
	.loc 1 559 0
	cmp	r4, #31
	movgt	r4, #0
.LVL108:
.L107:
.LBE60:
	.loc 1 549 0
	cmp	r6, r5
.LBB61:
	.loc 1 556 0
	mov	r0, fp
.LBE61:
	.loc 1 549 0
	add	r6, r6, #1
	bne	.L108
.LVL109:
.L109:
.LBE59:
.LBE58:
	.loc 1 680 0
	ldr	r1, [sp, #4]
.LVL110:
	add	fp, fp, #1
	.loc 1 681 0
	add	r3, sp, #50
	.loc 1 680 0
	add	r1, r1, #4
	cmp	fp, #7
	.loc 1 681 0
	strh	r4, [r9, r3]	@ movhi
	.loc 1 680 0
	str	r1, [sp, #4]
	add	r9, r9, #2
	bne	.L104
.LVL111:
	.loc 1 684 0
	ldr	r2, [sp, #20]
	add	r3, r8, #1
	cmp	r2, #0
	mov	r3, r3, asl #16
	moveq	r2, #1024
	movne	r2, #0
	str	r2, [sp, #20]
	mov	r8, r3, lsr #16
.L102:
	.loc 1 656 0
	ldr	r1, [sp, #12]
	rsb	r3, sl, r1
	mov	r3, r3, asl #16
	.loc 1 679 0
	add	r3, sl, r3, lsr #16
	sub	r2, r3, #1
	mov	r3, r2, asl #16
	cmp	r8, r3, lsr #16
	bne	.L103
	ldr	r3, .L145+12
	ldr	r1, [sp, #20]
	str	r3, [sp, #8]
	ldr	r3, .L145+8
	mov	sl, #0
.LVL112:
	str	r1, [r3, #0]
	ldr	r3, .L145+4
	str	sl, [sp, #24]
	strh	r2, [r3, #0]	@ movhi
	str	sl, [sp, #28]
.LVL113:
.L118:
	.loc 1 691 0
	ldr	r2, [sp, #24]
	add	r3, sp, #50
	ldrsh	r4, [r2, r3]
.LVL114:
.LBB62:
.LBB63:
	.loc 1 572 0
	add	r3, sp, #36
	ldrsh	r3, [r2, r3]
	.loc 1 576 0
	mov	fp, #512
.LVL115:
	subs	r8, r3, r4
	.loc 1 574 0
	ldr	r3, .L145+8
	.loc 1 576 0
	addmi	r8, r8, #32
	.loc 1 574 0
	ldr	r6, [r3, #0]
.LVL116:
	.loc 1 576 0
	mov	r3, #0
	mov	lr, r3
	str	r3, [sp, #16]
	b	.L121
.LVL117:
.L122:
.LBB64:
	.loc 1 588 0
	ldr	r3, [sp, #8]
	ldr	r2, [r3, #0]
	.loc 1 589 0
	ldr	r3, .L145+4
	ldrh	ip, [r3, #0]
.LVL118:
	.loc 1 588 0
	mov	r3, #12
	mla	r5, r4, r3, r2
.LVL119:
	.loc 1 589 0
	ldrh	r3, [r5, #8]
	cmp	r3, ip
	bne	.L123
	.loc 1 600 0
	ldrh	r9, [r5, #10]
	.loc 1 619 0
	add	r4, r4, #1
	.loc 1 600 0
	rsb	r3, lr, r9
	.loc 1 604 0
	movs	r3, r3, lsr #1
.LVL120:
	beq	.L125
	cmp	fp, r3
	movcc	r2, fp
	movcs	r2, r3
.LVL121:
	.loc 1 614 0
	add	r6, r6, r2, asl #1
	.loc 1 613 0
	rsb	fp, r2, fp
	.loc 1 612 0
	bl	neoAudioStreamAdpcm
.LVL122:
.L125:
	.loc 1 620 0
	cmp	r4, #31
	.loc 1 617 0
	mov	r1, r5
	mov	r0, sl
	.loc 1 620 0
	movgt	r4, #0
	.loc 1 617 0
	bl	neoAudioCommand
.LVL123:
.LBE64:
	.loc 1 587 0
	mov	lr, r9
.LVL124:
.L121:
.LBB65:
	.loc 1 612 0
	ldr	r1, [sp, #28]
.LBE65:
	.loc 1 587 0
	ldr	r2, [sp, #16]
.LBB66:
	.loc 1 612 0
	add	r3, r1, r6
	ldr	r1, .L145+16
.LBE66:
	.loc 1 587 0
	cmp	r2, r8
	add	r2, r2, #1
.LBB67:
	.loc 1 612 0
	add	r1, r1, r3, asl #1
.LBE67:
	.loc 1 587 0
	str	r2, [sp, #16]
.LBB68:
	.loc 1 612 0
	mov	r0, sl
.LVL125:
.LBE68:
	.loc 1 587 0
	bne	.L122
.LVL126:
.L123:
	.loc 1 626 0
	cmp	fp, #0
	beq	.L129
	.loc 1 629 0
	ldr	r1, [sp, #28]
	mov	r2, fp
	add	r3, r1, r6
	ldr	r1, .L145+16
	mov	r0, sl
	add	r1, r1, r3, asl #1
	bl	neoAudioStreamAdpcm
.LVL127:
.L129:
.LBE63:
.LBE62:
	.loc 1 691 0
	ldr	r2, [sp, #24]
	add	r3, sp, #50
	strh	r4, [r2, r3]	@ movhi
	.loc 1 690 0
	ldr	r1, [sp, #28]
	ldr	r3, [sp, #8]
	add	sl, sl, #1
	add	r3, r3, #4
	add	r2, r2, #2
	add	r1, r1, #2048
	cmp	sl, #7
	str	r3, [sp, #8]
	str	r2, [sp, #24]
	str	r1, [sp, #28]
	bne	.L118
	.loc 1 695 0
	ldr	r2, .L145+8
	ldr	r0, .L145+20
	ldr	r3, [r2, #0]
	.loc 1 697 0
	mov	r1, #0
.LVL128:
	.loc 1 695 0
	cmp	r3, #0
	addeq	r3, r3, #1024
	.loc 1 696 0
	movne	r3, #0
	str	r3, [r2, #0]
	.loc 1 697 0
	ldr	r2, .L145+4
	ldrh	r3, [r2, #0]
	add	r3, r3, #1
	strh	r3, [r2, #0]	@ movhi
.L135:
	.loc 1 701 0
	mov	r3, r1, asl #1
	add	r2, sp, #50
	ldrh	r3, [r3, r2]
	.loc 1 700 0
	add	r1, r1, #1
	cmp	r1, #7
	.loc 1 701 0
	strh	r3, [r0], #2	@ movhi
	.loc 1 700 0
	bne	.L135
.L136:
	.loc 1 706 0
	add	sp, sp, #64
	ldmfd	sp!, {r4, r5, r6, r8, r9, sl, fp, pc}
.L146:
	.align	2
.L145:
	.word	41940223
	.word	g_audioFrame
	.word	g_buffer
	.word	41940024
	.word	g_adpcmaBuffer
	.word	41940066
.LFE117:
	.size	neoAudioStreamProcess, .-neoAudioStreamProcess
	.align	2
	.global	neoAudioStreamReset
	.type	neoAudioStreamReset, %function
neoAudioStreamReset:
.LFB108:
	.loc 1 148 0
	@ args = 0, pretend = 0, frame = 8
	@ frame_needed = 0, uses_anonymous_args = 0
	stmfd	sp!, {r4, r5, r6, r8, r9, sl, fp, lr}
.LCFI5:
	ldr	r3, .L153
	ldr	r6, .L153+4
	sub	sp, sp, #8
.LCFI6:
	.loc 1 148 0
	ldr	sl, .L153+8
	ldr	r8, .L153+12
	ldr	fp, .L153+16
	str	r3, [sp, #4]
	mov	r9, #0
.LVL129:
	mov	r5, r6
.L148:
	.loc 1 153 0
	mov	r4, #0
	.loc 1 151 0
	orr	r3, sl, #4194304
	.loc 1 152 0
	orr	r2, r8, #4194304
	.loc 1 151 0
	str	r3, [r5, #-227]
	.loc 1 156 0
	mov	r0, sl
	.loc 1 152 0
	str	r2, [r5, #-199]
	.loc 1 156 0
	mov	r1, r4
	.loc 1 153 0
	strh	r4, [r6, #-171]	@ movhi
	.loc 1 156 0
	mov	r2, #2048
	.loc 1 154 0
	strh	r4, [r6, #-157]	@ movhi
	.loc 1 155 0
	strb	r4, [fp], #1
	.loc 1 156 0
	bl	memset
	.loc 1 157 0
	mov	r0, r8
	mov	r1, r4
	mov	r2, #384
	bl	memset
	.loc 1 158 0
	ldr	r3, [sp, #4]
	.loc 1 150 0
	add	r9, r9, #1
	.loc 1 158 0
	str	r4, [r3], #4
	.loc 1 150 0
	cmp	r9, #7
	.loc 1 158 0
	str	r3, [sp, #4]
	.loc 1 150 0
	add	r5, r5, #4
	add	r6, r6, #2
	add	sl, sl, #4096
	add	r8, r8, #384
	bne	.L148
	.loc 1 160 0
	bl	DC_FlushAll
	.loc 1 162 0
	ldr	r3, .L153+20
	strh	r4, [r3, #0]	@ movhi
	.loc 1 163 0
	ldr	r3, .L153+24
	str	r4, [r3, #0]
	.loc 1 164 0
	add	sp, sp, #8
	ldmfd	sp!, {r4, r5, r6, r8, r9, sl, fp, pc}
.L154:
	.align	2
.L153:
	.word	g_zeroFill
	.word	41940223
	.word	g_adpcmaBuffer
	.word	g_adpcmControl
	.word	41940106
	.word	g_audioFrame
	.word	g_buffer
.LFE108:
	.size	neoAudioStreamReset, .-neoAudioStreamReset
	.align	2
	.global	neoAudioStreamInit
	.type	neoAudioStreamInit, %function
neoAudioStreamInit:
.LFB107:
	.loc 1 98 0
	@ args = 0, pretend = 0, frame = 0
	@ frame_needed = 0, uses_anonymous_args = 0
	stmfd	sp!, {r4, r5, r6, lr}
.LCFI7:
	.loc 1 102 0
	bl	neoAudioStreamReset
	.loc 1 104 0
	ldr	r0, .L175
	bl	neoSystemVramHAlloc
	ldr	r2, .L175+4
	.loc 1 107 0
	mov	r3, #0
	ldr	r6, .L175+8
	.loc 1 104 0
	str	r0, [r2, #0]
	.loc 1 107 0
	mov	r5, r3
	.loc 1 106 0
	mov	r2, #18432
	str	r2, [r7, #312]
	.loc 1 107 0
	str	r3, [r7, #308]
	b	.L156
.LVL130:
.L157:
.LBB69:
	.loc 1 113 0
	ldrsh	r3, [r6, #0]
	.loc 1 114 0
	add	lr, lr, #2
	.loc 1 113 0
	mul	r3, r4, r3
	add	r2, r3, #7
	cmp	r3, #0
	movlt	r3, r2
	mov	r2, r3, asr #3
.LVL131:
	.loc 1 114 0
	tst	r0, #8
	mov	r1, r2
	add	ip, ip, #4
	rsbne	r1, r2, #0
.L161:
	.loc 1 115 0
	ldrsh	r3, [lr, #0]
.LBE69:
	.loc 1 112 0
	add	r0, r0, #1
.LBB70:
	.loc 1 115 0
	add	r3, r5, r3
	.loc 1 113 0
	and	r2, r0, #7
.LVL132:
	.loc 1 115 0
	mov	r3, r3, asl #2
.LVL133:
	.loc 1 113 0
	mov	r2, r2, asl #1
	.loc 1 115 0
	cmp	r3, #0
	movlt	r3, #0
.LVL134:
	.loc 1 121 0
	cmp	r3, #3072
	movge	r3, #3072
.LVL135:
	.loc 1 113 0
	add	r4, r2, #1
.LBE70:
	.loc 1 112 0
	cmp	r0, #16
.LBB71:
	.loc 1 120 0
	mov	r2, r1, asl #4
	strh	r2, [ip, #0]	@ movhi
	.loc 1 121 0
	strh	r3, [ip, #2]	@ movhi
.LBE71:
	.loc 1 112 0
	bne	.L157
	add	r5, r5, #16
	.loc 1 110 0
	cmp	r5, #784
	.loc 1 112 0
	add	r6, r6, #2
	.loc 1 110 0
	bne	.L156
	.loc 1 125 0
	mov	r2, #256000
	mov	r0, #4
.LVL136:
	ldr	r1, .L175+12
.LVL137:
	bl	neoSystemLoadRegion
	ldr	r2, .L175+16
.L164:
	.loc 1 127 0
	mvn	r3, #0
	strb	r3, [r2], #1
	.loc 1 126 0
	ldr	r3, .L175+20
	cmp	r2, r3
	bne	.L164
	ldr	ip, .L175+24
	sub	lr, r2, #16384
	mov	r0, #0
.LVL138:
.L166:
	.loc 1 130 0
	and	r3, r0, #255
	strh	r0, [ip, #0]	@ movhi
	.loc 1 129 0
	add	r0, r0, #1
	.loc 1 131 0
	add	r2, r3, #1
	.loc 1 132 0
	sub	r1, r3, #1
	.loc 1 129 0
	cmp	r0, #250
	.loc 1 131 0
	strb	r2, [ip, #2]
	.loc 1 132 0
	strb	r1, [ip, #3]
	.loc 1 134 0
	strb	r3, [lr], #1
	.loc 1 129 0
	add	ip, ip, #4
	bne	.L166
	.loc 1 136 0
	ldr	r2, .L175+24
	.loc 1 142 0
	mvn	r3, #6
	strb	r3, [r2, #1007]
	.loc 1 136 0
	add	r3, r3, #1
	.loc 1 139 0
	mov	r0, #0
.LVL139:
	.loc 1 140 0
	mvn	r1, #0
	.loc 1 136 0
	strb	r3, [r2, #3]
	.loc 1 137 0
	add	r3, r3, #1
	strb	r3, [r2, #998]
	.loc 1 141 0
	strb	r1, [r2, #1006]
	.loc 1 139 0
	strb	r0, [r2, #1002]
	.loc 1 140 0
	strb	r1, [r2, #1003]
	.loc 1 144 0
	str	r0, [r7, #316]
	.loc 1 145 0
	ldmfd	sp!, {r4, r5, r6, pc}
.LVL140:
.L156:
.LBB72:
	.loc 1 113 0
	ldrsh	r3, [r6, #0]
	ldr	lr, .L175+28
	add	r2, r3, #7
	cmp	r3, #0
	movlt	r3, r2
	ldr	r2, .L175+32
	mov	r1, r3, asr #3
	add	ip, r2, r5, asl #2
	mov	r0, #0
	b	.L161
.L176:
	.align	2
.L175:
	.word	6176
	.word	g_adpcmbBuffer
	.word	g_adpcmSteps
	.word	g_adpcmCache
	.word	g_adpcmTable
	.word	g_adpcmTable+16384
	.word	g_adpcmEntry
	.word	g_adpcmStepInc
	.word	g_jediTable
.LBE72:
.LFE107:
	.size	neoAudioStreamInit, .-neoAudioStreamInit
	.bss
	.align	1
g_audioFrame:
	.space	2
	.align	2
g_buffer:
	.space	4
	.align	2
g_zeroFill:
	.space	28
	.section	.dtcm,"a",%progbits
	.type	g_adpcmbTable1, %object
	.size	g_adpcmbTable1, 16
g_adpcmbTable1:
	.byte	1
	.byte	3
	.byte	5
	.byte	7
	.byte	9
	.byte	11
	.byte	13
	.byte	15
	.byte	-1
	.byte	-3
	.byte	-5
	.byte	-7
	.byte	-9
	.byte	-11
	.byte	-13
	.byte	-15
	.type	g_adpcmbTable2, %object
	.size	g_adpcmbTable2, 16
g_adpcmbTable2:
	.byte	57
	.byte	57
	.byte	57
	.byte	57
	.byte	77
	.byte	102
	.byte	-128
	.byte	-103
	.byte	57
	.byte	57
	.byte	57
	.byte	57
	.byte	77
	.byte	102
	.byte	-128
	.byte	-103
	.section	.rodata
	.align	1
	.type	g_adpcmSteps, %object
	.size	g_adpcmSteps, 98
g_adpcmSteps:
	.short	16
	.short	17
	.short	19
	.short	21
	.short	23
	.short	25
	.short	28
	.short	31
	.short	34
	.short	37
	.short	41
	.short	45
	.short	50
	.short	55
	.short	60
	.short	66
	.short	73
	.short	80
	.short	88
	.short	97
	.short	107
	.short	118
	.short	130
	.short	143
	.short	157
	.short	173
	.short	190
	.short	209
	.short	230
	.short	253
	.short	279
	.short	307
	.short	337
	.short	371
	.short	408
	.short	449
	.short	494
	.short	544
	.short	598
	.short	658
	.short	724
	.short	796
	.short	876
	.short	963
	.short	1060
	.short	1166
	.short	1282
	.short	1411
	.short	1552
	.align	1
	.type	g_adpcmStepInc, %object
	.size	g_adpcmStepInc, 32
g_adpcmStepInc:
	.short	-16
	.short	-16
	.short	-16
	.short	-16
	.short	32
	.short	80
	.short	112
	.short	144
	.short	-16
	.short	-16
	.short	-16
	.short	-16
	.short	32
	.short	80
	.short	112
	.short	144
	.bss
	.align	5
g_adpcmControl:
	.space	2688
	.align	5
g_adpcmaBuffer:
	.space	28672
	.align	2
g_adpcmbBuffer:
	.space	4
	.align	5
g_adpcmTable:
	.space	16384
	.align	5
g_adpcmCache:
	.space	256000
	.align	5
g_adpcmEntry:
	.space	1008
	.comm	g_jediTable,3136,32
	.section	.debug_frame,"",%progbits
.Lframe0:
	.4byte	.LECIE0-.LSCIE0
.LSCIE0:
	.4byte	0xffffffff
	.byte	0x1
	.ascii	"\000"
	.uleb128 0x1
	.sleb128 -4
	.byte	0xe
	.byte	0xc
	.uleb128 0xd
	.uleb128 0x0
	.align	2
.LECIE0:
.LSFDE0:
	.4byte	.LEFDE0-.LASFDE0
.LASFDE0:
	.4byte	.Lframe0
	.4byte	.LFB114
	.4byte	.LFE114-.LFB114
	.align	2
.LEFDE0:
.LSFDE2:
	.4byte	.LEFDE2-.LASFDE2
.LASFDE2:
	.4byte	.Lframe0
	.4byte	.LFB110
	.4byte	.LFE110-.LFB110
	.byte	0x4
	.4byte	.LCFI0-.LFB110
	.byte	0xe
	.uleb128 0x20
	.byte	0x8e
	.uleb128 0x1
	.byte	0x8b
	.uleb128 0x2
	.byte	0x8a
	.uleb128 0x3
	.byte	0x89
	.uleb128 0x4
	.byte	0x88
	.uleb128 0x5
	.byte	0x86
	.uleb128 0x6
	.byte	0x85
	.uleb128 0x7
	.byte	0x84
	.uleb128 0x8
	.align	2
.LEFDE2:
.LSFDE4:
	.4byte	.LEFDE4-.LASFDE4
.LASFDE4:
	.4byte	.Lframe0
	.4byte	.LFB113
	.4byte	.LFE113-.LFB113
	.byte	0x4
	.4byte	.LCFI1-.LFB113
	.byte	0xe
	.uleb128 0x20
	.byte	0x8e
	.uleb128 0x1
	.byte	0x8b
	.uleb128 0x2
	.byte	0x8a
	.uleb128 0x3
	.byte	0x89
	.uleb128 0x4
	.byte	0x88
	.uleb128 0x5
	.byte	0x86
	.uleb128 0x6
	.byte	0x85
	.uleb128 0x7
	.byte	0x84
	.uleb128 0x8
	.byte	0x4
	.4byte	.LCFI2-.LCFI1
	.byte	0xe
	.uleb128 0x60
	.align	2
.LEFDE4:
.LSFDE6:
	.4byte	.LEFDE6-.LASFDE6
.LASFDE6:
	.4byte	.Lframe0
	.4byte	.LFB117
	.4byte	.LFE117-.LFB117
	.byte	0x4
	.4byte	.LCFI3-.LFB117
	.byte	0xe
	.uleb128 0x20
	.byte	0x4
	.4byte	.LCFI4-.LCFI3
	.byte	0xe
	.uleb128 0x60
	.byte	0x8e
	.uleb128 0x1
	.byte	0x8b
	.uleb128 0x2
	.byte	0x8a
	.uleb128 0x3
	.byte	0x89
	.uleb128 0x4
	.byte	0x88
	.uleb128 0x5
	.byte	0x86
	.uleb128 0x6
	.byte	0x85
	.uleb128 0x7
	.byte	0x84
	.uleb128 0x8
	.align	2
.LEFDE6:
.LSFDE8:
	.4byte	.LEFDE8-.LASFDE8
.LASFDE8:
	.4byte	.Lframe0
	.4byte	.LFB108
	.4byte	.LFE108-.LFB108
	.byte	0x4
	.4byte	.LCFI5-.LFB108
	.byte	0xe
	.uleb128 0x20
	.byte	0x8e
	.uleb128 0x1
	.byte	0x8b
	.uleb128 0x2
	.byte	0x8a
	.uleb128 0x3
	.byte	0x89
	.uleb128 0x4
	.byte	0x88
	.uleb128 0x5
	.byte	0x86
	.uleb128 0x6
	.byte	0x85
	.uleb128 0x7
	.byte	0x84
	.uleb128 0x8
	.byte	0x4
	.4byte	.LCFI6-.LCFI5
	.byte	0xe
	.uleb128 0x28
	.align	2
.LEFDE8:
.LSFDE10:
	.4byte	.LEFDE10-.LASFDE10
.LASFDE10:
	.4byte	.Lframe0
	.4byte	.LFB107
	.4byte	.LFE107-.LFB107
	.byte	0x4
	.4byte	.LCFI7-.LFB107
	.byte	0xe
	.uleb128 0x10
	.byte	0x8e
	.uleb128 0x1
	.byte	0x86
	.uleb128 0x2
	.byte	0x85
	.uleb128 0x3
	.byte	0x84
	.uleb128 0x4
	.align	2
.LEFDE10:
	.file 2 "C:/devkitPro/libnds/include/nds/jtypes.h"
	.file 3 "c:\\devkitpro\\devkitarm\\bin\\../lib/gcc/arm-eabi/4.1.1/../../../../arm-eabi/include/stdint.h"
	.file 4 "C:/Users/GRX/NeoDS-GBMacro/arm9/../common/source/NeoIPC.h"
	.file 5 "C:/Users/GRX/NeoDS-GBMacro/arm9/../common/source/NeoAudioStream.h"
	.file 6 "C:/devkitPro/libnds/include/nds/arm9/videoGL.h"
	.file 7 "C:/devkitPro/libnds/include/nds/arm9/trig_lut.h"
	.file 8 "C:/Users/GRX/NeoDS-GBMacro/arm9/include/NeoSystem.h"
	.file 9 "C:/Users/GRX/NeoDS-GBMacro/arm9/include/NeoCpu.h"
	.file 10 "C:/Users/GRX/NeoDS-GBMacro/arm9/include/cyclone.h"
	.text
.Letext0: